libiris_ksirk.so.2:_Z10findSubTagRK11QDomElementRK7QStringPb
libiris_ksirk.so.2:_Z10tagContentRK11QDomElement
libiris_ksirk.so.2:_Z12addCorrectNSRK11QDomElement
libiris_ksirk.so.2:_Z19getErrorFromElementRK11QDomElementRK7QStringPiPS2_
libiris_ksirk.so.2:_Z24childElementsByTagNameNSRK11QDomElementRK7QStringS4_
libiris_ksirk.so.2:_Z7queryNSRK11QDomElement
libiris_ksirk.so.2:_Z7textTagP12QDomDocumentRK7QStringS3_
libiris_ksirk.so.2:_Z8TS2stampRK9QDateTime
libiris_ksirk.so.2:_Z8createIQP12QDomDocumentRK7QStringS3_S3_
libiris_ksirk.so.2:_Z8queryTagRK11QDomElement
libiris_ksirk.so.2:_Z8stamp2TSRK7QString
libiris_ksirk.so.2:_Z8stamp2TSRK7QStringP9QDateTime
libiris_ksirk.so.2:_ZN10ByteStream10appendReadERK10QByteArray
libiris_ksirk.so.2:_ZN10ByteStream11appendArrayEP10QByteArrayRKS0_
libiris_ksirk.so.2:_ZN10ByteStream11appendWriteERK10QByteArray
libiris_ksirk.so.2:_ZN10ByteStream11qt_metacallEN11QMetaObject4CallEiPPv
libiris_ksirk.so.2:_ZN10ByteStream11qt_metacastEPKc
libiris_ksirk.so.2:_ZN10ByteStream12bytesWrittenEi
libiris_ksirk.so.2:_ZN10ByteStream15clearReadBufferEv
libiris_ksirk.so.2:_ZN10ByteStream16clearWriteBufferEv
libiris_ksirk.so.2:_ZN10ByteStream16connectionClosedEv
libiris_ksirk.so.2:_ZN10ByteStream20delayedCloseFinishedEv
libiris_ksirk.so.2:_ZN10ByteStream4readEi
libiris_ksirk.so.2:_ZN10ByteStream5closeEv
libiris_ksirk.so.2:_ZN10ByteStream5errorEi
libiris_ksirk.so.2:_ZN10ByteStream5writeERK10QByteArray
libiris_ksirk.so.2:_ZN10ByteStream7readBufEv
libiris_ksirk.so.2:_ZN10ByteStream8takeReadEib
libiris_ksirk.so.2:_ZN10ByteStream8tryWriteEv
libiris_ksirk.so.2:_ZN10ByteStream8writeBufEv
libiris_ksirk.so.2:_ZN10ByteStream9readyReadEv
libiris_ksirk.so.2:_ZN10ByteStream9takeArrayEP10QByteArrayib
libiris_ksirk.so.2:_ZN10ByteStream9takeWriteEib
libiris_ksirk.so.2:_ZN10ByteStreamC1EP7QObject
libiris_ksirk.so.2:_ZN10ByteStreamC2EP7QObject
libiris_ksirk.so.2:_ZN10ByteStreamD0Ev
libiris_ksirk.so.2:_ZN10ByteStreamD1Ev
libiris_ksirk.so.2:_ZN10ByteStreamD2Ev
libiris_ksirk.so.2:_ZN12XDomNodeList6appendERK8QDomNode
libiris_ksirk.so.2:_ZN12XDomNodeListC1ERK12QDomNodeList
libiris_ksirk.so.2:_ZN12XDomNodeListC1ERKS_
libiris_ksirk.so.2:_ZN12XDomNodeListC1Ev
libiris_ksirk.so.2:_ZN12XDomNodeListC2ERK12QDomNodeList
libiris_ksirk.so.2:_ZN12XDomNodeListC2ERKS_
libiris_ksirk.so.2:_ZN12XDomNodeListC2Ev
libiris_ksirk.so.2:_ZN12XDomNodeListD1Ev
libiris_ksirk.so.2:_ZN12XDomNodeListD2Ev
libiris_ksirk.so.2:_ZN12XDomNodeListaSERKS_
libiris_ksirk.so.2:_ZN4XMPP10JT_Gateway11qt_metacallEN11QMetaObject4CallEiPPv
libiris_ksirk.so.2:_ZN4XMPP10JT_Gateway11qt_metacastEPKc
libiris_ksirk.so.2:_ZN4XMPP10JT_Gateway3getERKNS_3JidE
libiris_ksirk.so.2:_ZN4XMPP10JT_Gateway3setERKNS_3JidERK7QString
libiris_ksirk.so.2:_ZN4XMPP10JT_Gateway4onGoEv
libiris_ksirk.so.2:_ZN4XMPP10JT_Gateway4takeERK11QDomElement
libiris_ksirk.so.2:_ZN4XMPP10JT_GatewayC1EPNS_4TaskE
libiris_ksirk.so.2:_ZN4XMPP10JT_GatewayC2EPNS_4TaskE
libiris_ksirk.so.2:_ZN4XMPP10JT_Message11qt_metacallEN11QMetaObject4CallEiPPv
libiris_ksirk.so.2:_ZN4XMPP10JT_Message11qt_metacastEPKc
libiris_ksirk.so.2:_ZN4XMPP10JT_Message4onGoEv
libiris_ksirk.so.2:_ZN4XMPP10JT_MessageC1EPNS_4TaskERKNS_7MessageE
libiris_ksirk.so.2:_ZN4XMPP10JT_MessageC2EPNS_4TaskERKNS_7MessageE
libiris_ksirk.so.2:_ZN4XMPP10JT_MessageD0Ev
libiris_ksirk.so.2:_ZN4XMPP10JT_MessageD1Ev
libiris_ksirk.so.2:_ZN4XMPP10JT_MessageD2Ev
libiris_ksirk.so.2:_ZN4XMPP10JT_PushS5B11qt_metacallEN11QMetaObject4CallEiPPv
libiris_ksirk.so.2:_ZN4XMPP10JT_PushS5B11qt_metacastEPKc
libiris_ksirk.so.2:_ZN4XMPP10JT_PushS5B12respondErrorERKNS_3JidERK7QStringiS6_
libiris_ksirk.so.2:_ZN4XMPP10JT_PushS5B12sendActivateERKNS_3JidERK7QStringS3_
libiris_ksirk.so.2:_ZN4XMPP10JT_PushS5B14respondSuccessERKNS_3JidERK7QStringS3_
libiris_ksirk.so.2:_ZN4XMPP10JT_PushS5B14sendUDPSuccessERKNS_3JidERK7QString
libiris_ksirk.so.2:_ZN4XMPP10JT_PushS5B16incomingActivateERKNS_3JidERK7QStringS3_
libiris_ksirk.so.2:_ZN4XMPP10JT_PushS5B18incomingUDPSuccessERKNS_3JidERK7QString
libiris_ksirk.so.2:_ZN4XMPP10JT_PushS5B4takeERK11QDomElement
libiris_ksirk.so.2:_ZN4XMPP10JT_PushS5B8incomingERKNS_10S5BRequestE
libiris_ksirk.so.2:_ZN4XMPP10JT_PushS5BC1EPNS_4TaskE
libiris_ksirk.so.2:_ZN4XMPP10JT_PushS5BC2EPNS_4TaskE
libiris_ksirk.so.2:_ZN4XMPP10JT_PushS5BD0Ev
libiris_ksirk.so.2:_ZN4XMPP10JT_PushS5BD1Ev
libiris_ksirk.so.2:_ZN4XMPP10JT_PushS5BD2Ev
libiris_ksirk.so.2:_ZN4XMPP10JT_Session4onGoEv
libiris_ksirk.so.2:_ZN4XMPP10JT_Session4takeERK11QDomElement
libiris_ksirk.so.2:_ZN4XMPP10JT_SessionC1EPNS_4TaskE
libiris_ksirk.so.2:_ZN4XMPP10JT_SessionC2EPNS_4TaskE
libiris_ksirk.so.2:_ZN4XMPP10S5BManager10con_acceptEPNS_13S5BConnectionE
libiris_ksirk.so.2:_ZN4XMPP10S5BManager10con_rejectEPNS_13S5BConnectionE
libiris_ksirk.so.2:_ZN4XMPP10S5BManager10con_unlinkEPNS_13S5BConnectionE
libiris_ksirk.so.2:_ZN4XMPP10S5BManager10doActivateERKNS_3JidERK7QStringS3_
libiris_ksirk.so.2:_ZN4XMPP10S5BManager10item_errorEi
libiris_ksirk.so.2:_ZN4XMPP10S5BManager10queryProxyEPNS0_5EntryE
libiris_ksirk.so.2:_ZN4XMPP10S5BManager10srv_unlinkEv
libiris_ksirk.so.2:_ZN4XMPP10S5BManager11con_connectEPNS_13S5BConnectionE
libiris_ksirk.so.2:_ZN4XMPP10S5BManager11con_sendUDPEPNS_13S5BConnectionERK10QByteArray
libiris_ksirk.so.2:_ZN4XMPP10S5BManager11ps_incomingERKNS_10S5BRequestE
libiris_ksirk.so.2:_ZN4XMPP10S5BManager11qt_metacallEN11QMetaObject4CallEiPPv
libiris_ksirk.so.2:_ZN4XMPP10S5BManager11qt_metacastEPKc
libiris_ksirk.so.2:_ZN4XMPP10S5BManager12takeIncomingEv
libiris_ksirk.so.2:_ZN4XMPP10S5BManager13entryContinueEPNS0_5EntryE
libiris_ksirk.so.2:_ZN4XMPP10S5BManager13incomingReadyEv
libiris_ksirk.so.2:_ZN4XMPP10S5BManager13item_acceptedEv
libiris_ksirk.so.2:_ZN4XMPP10S5BManager14item_connectedEv
libiris_ksirk.so.2:_ZN4XMPP10S5BManager14query_finishedEv
libiris_ksirk.so.2:_ZN4XMPP10S5BManager15srv_incomingUDPEbRK12QHostAddressiRK7QStringRK10QByteArray
libiris_ksirk.so.2:_ZN4XMPP10S5BManager16createConnectionEv
libiris_ksirk.so.2:_ZN4XMPP10S5BManager16item_tryingHostsERK5QListINS_10StreamHostEE
libiris_ksirk.so.2:_ZN4XMPP10S5BManager17item_proxyConnectEv
libiris_ksirk.so.2:_ZN4XMPP10S5BManager17srv_incomingReadyEP11SocksClientRK7QString
libiris_ksirk.so.2:_ZN4XMPP10S5BManager19ps_incomingActivateERKNS_3JidERK7QStringS3_
libiris_ksirk.so.2:_ZN4XMPP10S5BManager21ps_incomingUDPSuccessERKNS_3JidERK7QString
libiris_ksirk.so.2:_ZN4XMPP10S5BManager22targetShouldOfferProxyEPNS0_5EntryE
libiris_ksirk.so.2:_ZN4XMPP10S5BManager25item_waitingForActivationEv
libiris_ksirk.so.2:_ZN4XMPP10S5BManager4Item10doIncomingEv
libiris_ksirk.so.2:_ZN4XMPP10S5BManager4Item10doOutgoingEv
libiris_ksirk.so.2:_ZN4XMPP10S5BManager4Item10handleFastERK5QListINS_10StreamHostEERK7QString
libiris_ksirk.so.2:_ZN4XMPP10S5BManager4Item11conn_resultEb
libiris_ksirk.so.2:_ZN4XMPP10S5BManager4Item11jt_finishedEv
libiris_ksirk.so.2:_ZN4XMPP10S5BManager4Item11qt_metacallEN11QMetaObject4CallEiPPv
libiris_ksirk.so.2:_ZN4XMPP10S5BManager4Item11qt_metacastEPKc
libiris_ksirk.so.2:_ZN4XMPP10S5BManager4Item11startTargetERK7QStringRKNS_3JidES7_RK5QListINS_10StreamHostEES4_bb
libiris_ksirk.so.2:_ZN4XMPP10S5BManager4Item11tryingHostsERK5QListINS_10StreamHostEE
libiris_ksirk.so.2:_ZN4XMPP10S5BManager4Item12checkFailureEv
libiris_ksirk.so.2:_ZN4XMPP10S5BManager4Item12proxyConnectEv
libiris_ksirk.so.2:_ZN4XMPP10S5BManager4Item12proxy_resultEb
libiris_ksirk.so.2:_ZN4XMPP10S5BManager4Item12sc_readyReadEv
libiris_ksirk.so.2:_ZN4XMPP10S5BManager4Item13tryActivationEv
libiris_ksirk.so.2:_ZN4XMPP10S5BManager4Item14doConnectErrorEv
libiris_ksirk.so.2:_ZN4XMPP10S5BManager4Item14proxy_finishedEv
libiris_ksirk.so.2:_ZN4XMPP10S5BManager4Item14startInitiatorERK7QStringRKNS_3JidES7_bb
libiris_ksirk.so.2:_ZN4XMPP10S5BManager4Item15sc_bytesWrittenEi
libiris_ksirk.so.2:_ZN4XMPP10S5BManager4Item16incomingActivateERKNS_3JidE
libiris_ksirk.so.2:_ZN4XMPP10S5BManager4Item17setIncomingClientEP11SocksClient
libiris_ksirk.so.2:_ZN4XMPP10S5BManager4Item18checkForActivationEv
libiris_ksirk.so.2:_ZN4XMPP10S5BManager4Item20waitingForActivationEv
libiris_ksirk.so.2:_ZN4XMPP10S5BManager4Item5errorEi
libiris_ksirk.so.2:_ZN4XMPP10S5BManager4Item5resetEv
libiris_ksirk.so.2:_ZN4XMPP10S5BManager4Item8acceptedEv
libiris_ksirk.so.2:_ZN4XMPP10S5BManager4Item8finishedEv
libiris_ksirk.so.2:_ZN4XMPP10S5BManager4Item8sc_errorEi
libiris_ksirk.so.2:_ZN4XMPP10S5BManager4Item9connectedEv
libiris_ksirk.so.2:_ZN4XMPP10S5BManager4ItemC1EPS0_
libiris_ksirk.so.2:_ZN4XMPP10S5BManager4ItemC2EPS0_
libiris_ksirk.so.2:_ZN4XMPP10S5BManager4ItemD0Ev
libiris_ksirk.so.2:_ZN4XMPP10S5BManager4ItemD1Ev
libiris_ksirk.so.2:_ZN4XMPP10S5BManager4ItemD2Ev
libiris_ksirk.so.2:_ZN4XMPP10S5BManager7doErrorERKNS_3JidERK7QStringiS6_
libiris_ksirk.so.2:_ZN4XMPP10S5BManager9doSuccessERKNS_3JidERK7QStringS3_
libiris_ksirk.so.2:_ZN4XMPP10S5BManager9setServerEPNS_9S5BServerE
libiris_ksirk.so.2:_ZN4XMPP10S5BManagerC1EPNS_6ClientE
libiris_ksirk.so.2:_ZN4XMPP10S5BManagerC2EPNS_6ClientE
libiris_ksirk.so.2:_ZN4XMPP10S5BManagerD0Ev
libiris_ksirk.so.2:_ZN4XMPP10S5BManagerD1Ev
libiris_ksirk.so.2:_ZN4XMPP10S5BManagerD2Ev
libiris_ksirk.so.2:_ZN4XMPP10StreamHost10setIsProxyEb
libiris_ksirk.so.2:_ZN4XMPP10StreamHost6setJidERKNS_3JidE
libiris_ksirk.so.2:_ZN4XMPP10StreamHost7setHostERK7QString
libiris_ksirk.so.2:_ZN4XMPP10StreamHost7setPortEi
libiris_ksirk.so.2:_ZN4XMPP10StreamHostC1Ev
libiris_ksirk.so.2:_ZN4XMPP10StreamHostC2Ev
libiris_ksirk.so.2:_ZN4XMPP10TLSHandler11qt_metacallEN11QMetaObject4CallEiPPv
libiris_ksirk.so.2:_ZN4XMPP10TLSHandler11qt_metacastEPKc
libiris_ksirk.so.2:_ZN4XMPP10TLSHandler17readyReadOutgoingERK10QByteArrayi
libiris_ksirk.so.2:_ZN4XMPP10TLSHandler4failEv
libiris_ksirk.so.2:_ZN4XMPP10TLSHandler6closedEv
libiris_ksirk.so.2:_ZN4XMPP10TLSHandler7successEv
libiris_ksirk.so.2:_ZN4XMPP10TLSHandler9readyReadERK10QByteArray
libiris_ksirk.so.2:_ZN4XMPP10TLSHandlerC1EP7QObject
libiris_ksirk.so.2:_ZN4XMPP10TLSHandlerC2EP7QObject
libiris_ksirk.so.2:_ZN4XMPP10TLSHandlerD0Ev
libiris_ksirk.so.2:_ZN4XMPP10TLSHandlerD1Ev
libiris_ksirk.so.2:_ZN4XMPP10TLSHandlerD2Ev
libiris_ksirk.so.2:_ZN4XMPP11JT_Presence11qt_metacallEN11QMetaObject4CallEiPPv
libiris_ksirk.so.2:_ZN4XMPP11JT_Presence11qt_metacastEPKc
libiris_ksirk.so.2:_ZN4XMPP11JT_Presence3subERKNS_3JidERK7QStringS6_
libiris_ksirk.so.2:_ZN4XMPP11JT_Presence4onGoEv
libiris_ksirk.so.2:_ZN4XMPP11JT_Presence4presERKNS_3JidERKNS_6StatusE
libiris_ksirk.so.2:_ZN4XMPP11JT_Presence4presERKNS_6StatusE
libiris_ksirk.so.2:_ZN4XMPP11JT_Presence5probeERKNS_3JidE
libiris_ksirk.so.2:_ZN4XMPP11JT_PresenceC1EPNS_4TaskE
libiris_ksirk.so.2:_ZN4XMPP11JT_PresenceC2EPNS_4TaskE
libiris_ksirk.so.2:_ZN4XMPP11JT_PresenceD0Ev
libiris_ksirk.so.2:_ZN4XMPP11JT_PresenceD1Ev
libiris_ksirk.so.2:_ZN4XMPP11JT_PresenceD2Ev
libiris_ksirk.so.2:_ZN4XMPP11JT_Register11qt_metacallEN11QMetaObject4CallEiPPv
libiris_ksirk.so.2:_ZN4XMPP11JT_Register11qt_metacastEPKc
libiris_ksirk.so.2:_ZN4XMPP11JT_Register3regERK7QStringS3_
libiris_ksirk.so.2:_ZN4XMPP11JT_Register4onGoEv
libiris_ksirk.so.2:_ZN4XMPP11JT_Register4takeERK11QDomElement
libiris_ksirk.so.2:_ZN4XMPP11JT_Register5unregERKNS_3JidE
libiris_ksirk.so.2:_ZN4XMPP11JT_Register7getFormERKNS_3JidE
libiris_ksirk.so.2:_ZN4XMPP11JT_Register7setFormERKNS_3JidERKNS_5XDataE
libiris_ksirk.so.2:_ZN4XMPP11JT_Register7setFormERKNS_4FormE
libiris_ksirk.so.2:_ZN4XMPP11JT_Register8changepwERK7QString
libiris_ksirk.so.2:_ZN4XMPP11JT_RegisterC1EPNS_4TaskE
libiris_ksirk.so.2:_ZN4XMPP11JT_RegisterC2EPNS_4TaskE
libiris_ksirk.so.2:_ZN4XMPP11JT_RegisterD0Ev
libiris_ksirk.so.2:_ZN4XMPP11JT_RegisterD1Ev
libiris_ksirk.so.2:_ZN4XMPP11JT_RegisterD2Ev
libiris_ksirk.so.2:_ZN4XMPP11JT_ServInfo11qt_metacallEN11QMetaObject4CallEiPPv
libiris_ksirk.so.2:_ZN4XMPP11JT_ServInfo11qt_metacastEPKc
libiris_ksirk.so.2:_ZN4XMPP11JT_ServInfo4takeERK11QDomElement
libiris_ksirk.so.2:_ZN4XMPP11JT_ServInfoC1EPNS_4TaskE
libiris_ksirk.so.2:_ZN4XMPP11JT_ServInfoC2EPNS_4TaskE
libiris_ksirk.so.2:_ZN4XMPP11JT_ServInfoD0Ev
libiris_ksirk.so.2:_ZN4XMPP11JT_ServInfoD1Ev
libiris_ksirk.so.2:_ZN4XMPP11JT_ServInfoD2Ev
libiris_ksirk.so.2:_ZN4XMPP11S5BDatagramC1EiiRK10QByteArray
libiris_ksirk.so.2:_ZN4XMPP11S5BDatagramC1Ev
libiris_ksirk.so.2:_ZN4XMPP11S5BDatagramC2EiiRK10QByteArray
libiris_ksirk.so.2:_ZN4XMPP11S5BDatagramC2Ev
libiris_ksirk.so.2:_ZN4XMPP12ClientStream10handleNeedEv
libiris_ksirk.so.2:_ZN4XMPP12ClientStream10sasl_errorEv
libiris_ksirk.so.2:_ZN4XMPP12ClientStream10setAuthzidERK7QString
libiris_ksirk.so.2:_ZN4XMPP12ClientStream10setOldOnlyEb
libiris_ksirk.so.2:_ZN4XMPP12ClientStream11doReadyReadEv
libiris_ksirk.so.2:_ZN4XMPP12ClientStream11handleErrorEv
libiris_ksirk.so.2:_ZN4XMPP12ClientStream11incomingXmlERK7QString
libiris_ksirk.so.2:_ZN4XMPP12ClientStream11outgoingXmlERK7QString
libiris_ksirk.so.2:_ZN4XMPP12ClientStream11processNextEv
libiris_ksirk.so.2:_ZN4XMPP12ClientStream11qt_metacallEN11QMetaObject4CallEiPPv
libiris_ksirk.so.2:_ZN4XMPP12ClientStream11qt_metacastEPKc
libiris_ksirk.so.2:_ZN4XMPP12ClientStream11setCompressEb
libiris_ksirk.so.2:_ZN4XMPP12ClientStream11setNoopTimeEi
libiris_ksirk.so.2:_ZN4XMPP12ClientStream11setPasswordERK7QString
libiris_ksirk.so.2:_ZN4XMPP12ClientStream11setSSFRangeEii
libiris_ksirk.so.2:_ZN4XMPP12ClientStream11setUsernameERK7QString
libiris_ksirk.so.2:_ZN4XMPP12ClientStream11writeDirectERK7QString
libiris_ksirk.so.2:_ZN4XMPP12ClientStream12cr_connectedEv
libiris_ksirk.so.2:_ZN4XMPP12ClientStream12setLocalAddrERK12QHostAddresst
libiris_ksirk.so.2:_ZN4XMPP12ClientStream12ss_readyReadEv
libiris_ksirk.so.2:_ZN4XMPP12ClientStream12ss_tlsClosedEv
libiris_ksirk.so.2:_ZN4XMPP12ClientStream13authenticatedEv
libiris_ksirk.so.2:_ZN4XMPP12ClientStream13sasl_nextStepERK10QByteArray
libiris_ksirk.so.2:_ZN4XMPP12ClientStream13setAllowPlainENS0_14AllowPlainTypeE
libiris_ksirk.so.2:_ZN4XMPP12ClientStream14needAuthParamsEbbb
libiris_ksirk.so.2:_ZN4XMPP12ClientStream14sasl_authCheckERK7QStringS3_
libiris_ksirk.so.2:_ZN4XMPP12ClientStream14srvProcessNextEv
libiris_ksirk.so.2:_ZN4XMPP12ClientStream15connectToServerERKNS_3JidEb
libiris_ksirk.so.2:_ZN4XMPP12ClientStream15sasl_needParamsERKN3QCA4SASL6ParamsE
libiris_ksirk.so.2:_ZN4XMPP12ClientStream15ss_bytesWrittenEi
libiris_ksirk.so.2:_ZN4XMPP12ClientStream16setSASLMechanismERK7QString
libiris_ksirk.so.2:_ZN4XMPP12ClientStream16ss_tlsHandshakenEv
libiris_ksirk.so.2:_ZN4XMPP12ClientStream18sasl_authenticatedEv
libiris_ksirk.so.2:_ZN4XMPP12ClientStream18setResourceBindingEb
libiris_ksirk.so.2:_ZN4XMPP12ClientStream19bs_connectionClosedEv
libiris_ksirk.so.2:_ZN4XMPP12ClientStream19continueAfterParamsEv
libiris_ksirk.so.2:_ZN4XMPP12ClientStream20continueAfterWarningEv
libiris_ksirk.so.2:_ZN4XMPP12ClientStream20sasl_clientFirstStepEbRK10QByteArray
libiris_ksirk.so.2:_ZN4XMPP12ClientStream20setRequireMutualAuthEb
libiris_ksirk.so.2:_ZN4XMPP12ClientStream22securityLayerActivatedEi
libiris_ksirk.so.2:_ZN4XMPP12ClientStream23bs_delayedCloseFinishedEv
libiris_ksirk.so.2:_ZN4XMPP12ClientStream4readEv
libiris_ksirk.so.2:_ZN4XMPP12ClientStream5closeEv
libiris_ksirk.so.2:_ZN4XMPP12ClientStream5resetEb
libiris_ksirk.so.2:_ZN4XMPP12ClientStream5writeERKNS_6StanzaE
libiris_ksirk.so.2:_ZN4XMPP12ClientStream6acceptEv
libiris_ksirk.so.2:_ZN4XMPP12ClientStream6doNoopEv
libiris_ksirk.so.2:_ZN4XMPP12ClientStream7setLangERK7QString
libiris_ksirk.so.2:_ZN4XMPP12ClientStream7warningEi
libiris_ksirk.so.2:_ZN4XMPP12ClientStream8bs_errorEi
libiris_ksirk.so.2:_ZN4XMPP12ClientStream8cr_errorEv
libiris_ksirk.so.2:_ZN4XMPP12ClientStream8setRealmERK7QString
libiris_ksirk.so.2:_ZN4XMPP12ClientStream8ss_errorEi
libiris_ksirk.so.2:_ZN4XMPP12ClientStream9connectedEv
libiris_ksirk.so.2:_ZN4XMPP12ClientStreamC1EPNS_9ConnectorEPNS_10TLSHandlerEP7QObject
libiris_ksirk.so.2:_ZN4XMPP12ClientStreamC1ERK7QStringS3_P10ByteStreamPN3QCA3TLSEP7QObject
libiris_ksirk.so.2:_ZN4XMPP12ClientStreamC2EPNS_9ConnectorEPNS_10TLSHandlerEP7QObject
libiris_ksirk.so.2:_ZN4XMPP12ClientStreamC2ERK7QStringS3_P10ByteStreamPN3QCA3TLSEP7QObject
libiris_ksirk.so.2:_ZN4XMPP12ClientStreamD0Ev
libiris_ksirk.so.2:_ZN4XMPP12ClientStreamD1Ev
libiris_ksirk.so.2:_ZN4XMPP12ClientStreamD2Ev
libiris_ksirk.so.2:_ZN4XMPP12S5BConnector10takeClientEv
libiris_ksirk.so.2:_ZN4XMPP12S5BConnector11item_resultEb
libiris_ksirk.so.2:_ZN4XMPP12S5BConnector11qt_metacallEN11QMetaObject4CallEiPPv
libiris_ksirk.so.2:_ZN4XMPP12S5BConnector11qt_metacastEPKc
libiris_ksirk.so.2:_ZN4XMPP12S5BConnector14man_udpSuccessERKNS_3JidE
libiris_ksirk.so.2:_ZN4XMPP12S5BConnector4Item11qt_metacallEN11QMetaObject4CallEiPPv
libiris_ksirk.so.2:_ZN4XMPP12S5BConnector4Item11qt_metacastEPKc
libiris_ksirk.so.2:_ZN4XMPP12S5BConnector4Item6resultEb
libiris_ksirk.so.2:_ZN4XMPP12S5BConnector5resetEv
libiris_ksirk.so.2:_ZN4XMPP12S5BConnector5startERKNS_3JidERK5QListINS_10StreamHostEERK7QStringbi
libiris_ksirk.so.2:_ZN4XMPP12S5BConnector6resultEb
libiris_ksirk.so.2:_ZN4XMPP12S5BConnector7takeUDPEv
libiris_ksirk.so.2:_ZN4XMPP12S5BConnector9t_timeoutEv
libiris_ksirk.so.2:_ZN4XMPP12S5BConnectorC1EP7QObject
libiris_ksirk.so.2:_ZN4XMPP12S5BConnectorC2EP7QObject
libiris_ksirk.so.2:_ZN4XMPP12S5BConnectorD0Ev
libiris_ksirk.so.2:_ZN4XMPP12S5BConnectorD1Ev
libiris_ksirk.so.2:_ZN4XMPP12S5BConnectorD2Ev
libiris_ksirk.so.2:_ZN4XMPP13JT_DiscoItems11qt_metacallEN11QMetaObject4CallEiPPv
libiris_ksirk.so.2:_ZN4XMPP13JT_DiscoItems11qt_metacastEPKc
libiris_ksirk.so.2:_ZN4XMPP13JT_DiscoItems3getERKNS_3JidERK7QString
libiris_ksirk.so.2:_ZN4XMPP13JT_DiscoItems3getERKNS_9DiscoItemE
libiris_ksirk.so.2:_ZN4XMPP13JT_DiscoItems4onGoEv
libiris_ksirk.so.2:_ZN4XMPP13JT_DiscoItems4takeERK11QDomElement
libiris_ksirk.so.2:_ZN4XMPP13JT_DiscoItemsC1EPNS_4TaskE
libiris_ksirk.so.2:_ZN4XMPP13JT_DiscoItemsC2EPNS_4TaskE
libiris_ksirk.so.2:_ZN4XMPP13JT_DiscoItemsD0Ev
libiris_ksirk.so.2:_ZN4XMPP13JT_DiscoItemsD1Ev
libiris_ksirk.so.2:_ZN4XMPP13JT_DiscoItemsD2Ev
libiris_ksirk.so.2:_ZN4XMPP13JT_PushRoster11qt_metacallEN11QMetaObject4CallEiPPv
libiris_ksirk.so.2:_ZN4XMPP13JT_PushRoster11qt_metacastEPKc
libiris_ksirk.so.2:_ZN4XMPP13JT_PushRoster4takeERK11QDomElement
libiris_ksirk.so.2:_ZN4XMPP13JT_PushRoster6rosterERKNS_6RosterE
libiris_ksirk.so.2:_ZN4XMPP13JT_PushRosterC1EPNS_4TaskE
libiris_ksirk.so.2:_ZN4XMPP13JT_PushRosterC2EPNS_4TaskE
libiris_ksirk.so.2:_ZN4XMPP13JT_PushRosterD0Ev
libiris_ksirk.so.2:_ZN4XMPP13JT_PushRosterD1Ev
libiris_ksirk.so.2:_ZN4XMPP13JT_PushRosterD2Ev
libiris_ksirk.so.2:_ZN4XMPP13JT_UnRegister11qt_metacallEN11QMetaObject4CallEiPPv
libiris_ksirk.so.2:_ZN4XMPP13JT_UnRegister11qt_metacastEPKc
libiris_ksirk.so.2:_ZN4XMPP13JT_UnRegister13unregFinishedEv
libiris_ksirk.so.2:_ZN4XMPP13JT_UnRegister15getFormFinishedEv
libiris_ksirk.so.2:_ZN4XMPP13JT_UnRegister4onGoEv
libiris_ksirk.so.2:_ZN4XMPP13JT_UnRegister5unregERKNS_3JidE
libiris_ksirk.so.2:_ZN4XMPP13JT_UnRegisterC1EPNS_4TaskE
libiris_ksirk.so.2:_ZN4XMPP13JT_UnRegisterC2EPNS_4TaskE
libiris_ksirk.so.2:_ZN4XMPP13JT_UnRegisterD0Ev
libiris_ksirk.so.2:_ZN4XMPP13JT_UnRegisterD1Ev
libiris_ksirk.so.2:_ZN4XMPP13JT_UnRegisterD2Ev
libiris_ksirk.so.2:_ZN4XMPP13QCATLSHandler10tls_closedEv
libiris_ksirk.so.2:_ZN4XMPP13QCATLSHandler11qt_metacallEN11QMetaObject4CallEiPPv
libiris_ksirk.so.2:_ZN4XMPP13QCATLSHandler11qt_metacastEPKc
libiris_ksirk.so.2:_ZN4XMPP13QCATLSHandler11startClientERK7QString
libiris_ksirk.so.2:_ZN4XMPP13QCATLSHandler13XMPPCertCheckEv
libiris_ksirk.so.2:_ZN4XMPP13QCATLSHandler13tlsHandshakenEv
libiris_ksirk.so.2:_ZN4XMPP13QCATLSHandler13tls_readyReadEv
libiris_ksirk.so.2:_ZN4XMPP13QCATLSHandler13writeIncomingERK10QByteArray
libiris_ksirk.so.2:_ZN4XMPP13QCATLSHandler14tls_handshakenEv
libiris_ksirk.so.2:_ZN4XMPP13QCATLSHandler16setXMPPCertCheckEb
libiris_ksirk.so.2:_ZN4XMPP13QCATLSHandler19certMatchesHostnameEv
libiris_ksirk.so.2:_ZN4XMPP13QCATLSHandler21tls_readyReadOutgoingEv
libiris_ksirk.so.2:_ZN4XMPP13QCATLSHandler22continueAfterHandshakeEv
libiris_ksirk.so.2:_ZN4XMPP13QCATLSHandler5resetEv
libiris_ksirk.so.2:_ZN4XMPP13QCATLSHandler5writeERK10QByteArray
libiris_ksirk.so.2:_ZN4XMPP13QCATLSHandler9tls_errorEv
libiris_ksirk.so.2:_ZN4XMPP13QCATLSHandlerC1EPN3QCA3TLSE
libiris_ksirk.so.2:_ZN4XMPP13QCATLSHandlerC2EPN3QCA3TLSE
libiris_ksirk.so.2:_ZN4XMPP13QCATLSHandlerD0Ev
libiris_ksirk.so.2:_ZN4XMPP13QCATLSHandlerD1Ev
libiris_ksirk.so.2:_ZN4XMPP13QCATLSHandlerD2Ev
libiris_ksirk.so.2:_ZN4XMPP13S5BConnection10man_failedEi
libiris_ksirk.so.2:_ZN4XMPP13S5BConnection10proxyQueryEv
libiris_ksirk.so.2:_ZN4XMPP13S5BConnection10requestingEv
libiris_ksirk.so.2:_ZN4XMPP13S5BConnection11proxyResultEb
libiris_ksirk.so.2:_ZN4XMPP13S5BConnection11qt_metacallEN11QMetaObject4CallEiPPv
libiris_ksirk.so.2:_ZN4XMPP13S5BConnection11qt_metacastEPKc
libiris_ksirk.so.2:_ZN4XMPP13S5BConnection11tryingHostsERK5QListINS_10StreamHostEE
libiris_ksirk.so.2:_ZN4XMPP13S5BConnection12connectToJidERKNS_3JidERK7QStringNS0_4ModeE
libiris_ksirk.so.2:_ZN4XMPP13S5BConnection12man_udpReadyERK10QByteArray
libiris_ksirk.so.2:_ZN4XMPP13S5BConnection12proxyConnectEv
libiris_ksirk.so.2:_ZN4XMPP13S5BConnection12readDatagramEv
libiris_ksirk.so.2:_ZN4XMPP13S5BConnection12sc_readyReadEv
libiris_ksirk.so.2:_ZN4XMPP13S5BConnection13datagramReadyEv
libiris_ksirk.so.2:_ZN4XMPP13S5BConnection13writeDatagramERKNS_11S5BDatagramE
libiris_ksirk.so.2:_ZN4XMPP13S5BConnection14su_packetReadyERK10QByteArray
libiris_ksirk.so.2:_ZN4XMPP13S5BConnection15man_clientReadyEP11SocksClientP8SocksUDP
libiris_ksirk.so.2:_ZN4XMPP13S5BConnection15sc_bytesWrittenEi
libiris_ksirk.so.2:_ZN4XMPP13S5BConnection17man_waitForAcceptERKNS_10S5BRequestE
libiris_ksirk.so.2:_ZN4XMPP13S5BConnection19sc_connectionClosedEv
libiris_ksirk.so.2:_ZN4XMPP13S5BConnection20waitingForActivationEv
libiris_ksirk.so.2:_ZN4XMPP13S5BConnection23sc_delayedCloseFinishedEv
libiris_ksirk.so.2:_ZN4XMPP13S5BConnection4readEi
libiris_ksirk.so.2:_ZN4XMPP13S5BConnection5closeEv
libiris_ksirk.so.2:_ZN4XMPP13S5BConnection5resetEb
libiris_ksirk.so.2:_ZN4XMPP13S5BConnection5writeERK10QByteArray
libiris_ksirk.so.2:_ZN4XMPP13S5BConnection6acceptEv
libiris_ksirk.so.2:_ZN4XMPP13S5BConnection7sendUDPERK10QByteArray
libiris_ksirk.so.2:_ZN4XMPP13S5BConnection8acceptedEv
libiris_ksirk.so.2:_ZN4XMPP13S5BConnection8sc_errorEi
libiris_ksirk.so.2:_ZN4XMPP13S5BConnection8setProxyERKNS_3JidE
libiris_ksirk.so.2:_ZN4XMPP13S5BConnection9connectedEv
libiris_ksirk.so.2:_ZN4XMPP13S5BConnection9doPendingEv
libiris_ksirk.so.2:_ZN4XMPP13S5BConnection9handleUDPERK10QByteArray
libiris_ksirk.so.2:_ZN4XMPP13S5BConnectionC1EPNS_10S5BManagerEP7QObject
libiris_ksirk.so.2:_ZN4XMPP13S5BConnectionC2EPNS_10S5BManagerEP7QObject
libiris_ksirk.so.2:_ZN4XMPP13S5BConnectionD0Ev
libiris_ksirk.so.2:_ZN4XMPP13S5BConnectionD1Ev
libiris_ksirk.so.2:_ZN4XMPP13S5BConnectionD2Ev
libiris_ksirk.so.2:_ZN4XMPP14JT_GetServices11qt_metacallEN11QMetaObject4CallEiPPv
libiris_ksirk.so.2:_ZN4XMPP14JT_GetServices11qt_metacastEPKc
libiris_ksirk.so.2:_ZN4XMPP14JT_GetServices3getERKNS_3JidE
libiris_ksirk.so.2:_ZN4XMPP14JT_GetServices4onGoEv
libiris_ksirk.so.2:_ZN4XMPP14JT_GetServices4takeERK11QDomElement
libiris_ksirk.so.2:_ZN4XMPP14JT_GetServicesC1EPNS_4TaskE
libiris_ksirk.so.2:_ZN4XMPP14JT_GetServicesC2EPNS_4TaskE
libiris_ksirk.so.2:_ZN4XMPP14JT_PushMessage11qt_metacallEN11QMetaObject4CallEiPPv
libiris_ksirk.so.2:_ZN4XMPP14JT_PushMessage11qt_metacastEPKc
libiris_ksirk.so.2:_ZN4XMPP14JT_PushMessage4takeERK11QDomElement
libiris_ksirk.so.2:_ZN4XMPP14JT_PushMessage7messageERKNS_7MessageE
libiris_ksirk.so.2:_ZN4XMPP14JT_PushMessageC1EPNS_4TaskE
libiris_ksirk.so.2:_ZN4XMPP14JT_PushMessageC2EPNS_4TaskE
libiris_ksirk.so.2:_ZN4XMPP14JT_PushMessageD0Ev
libiris_ksirk.so.2:_ZN4XMPP14JT_PushMessageD1Ev
libiris_ksirk.so.2:_ZN4XMPP14JT_PushMessageD2Ev
libiris_ksirk.so.2:_ZN4XMPP15JT_DiscoPublish11qt_metacallEN11QMetaObject4CallEiPPv
libiris_ksirk.so.2:_ZN4XMPP15JT_DiscoPublish11qt_metacastEPKc
libiris_ksirk.so.2:_ZN4XMPP15JT_DiscoPublish3setERKNS_3JidERK5QListINS_9DiscoItemEE
libiris_ksirk.so.2:_ZN4XMPP15JT_DiscoPublish4onGoEv
libiris_ksirk.so.2:_ZN4XMPP15JT_DiscoPublish4takeERK11QDomElement
libiris_ksirk.so.2:_ZN4XMPP15JT_DiscoPublishC1EPNS_4TaskE
libiris_ksirk.so.2:_ZN4XMPP15JT_DiscoPublishC2EPNS_4TaskE
libiris_ksirk.so.2:_ZN4XMPP15JT_DiscoPublishD0Ev
libiris_ksirk.so.2:_ZN4XMPP15JT_DiscoPublishD1Ev
libiris_ksirk.so.2:_ZN4XMPP15JT_DiscoPublishD2Ev
libiris_ksirk.so.2:_ZN4XMPP15JT_PushPresence11qt_metacallEN11QMetaObject4CallEiPPv
libiris_ksirk.so.2:_ZN4XMPP15JT_PushPresence11qt_metacastEPKc
libiris_ksirk.so.2:_ZN4XMPP15JT_PushPresence12subscriptionERKNS_3JidERK7QStringS6_
libiris_ksirk.so.2:_ZN4XMPP15JT_PushPresence4takeERK11QDomElement
libiris_ksirk.so.2:_ZN4XMPP15JT_PushPresence8presenceERKNS_3JidERKNS_6StatusE
libiris_ksirk.so.2:_ZN4XMPP15JT_PushPresenceC1EPNS_4TaskE
libiris_ksirk.so.2:_ZN4XMPP15JT_PushPresenceC2EPNS_4TaskE
libiris_ksirk.so.2:_ZN4XMPP15JT_PushPresenceD0Ev
libiris_ksirk.so.2:_ZN4XMPP15JT_PushPresenceD1Ev
libiris_ksirk.so.2:_ZN4XMPP15JT_PushPresenceD2Ev
libiris_ksirk.so.2:_ZN4XMPP16JT_ClientVersion11qt_metacallEN11QMetaObject4CallEiPPv
libiris_ksirk.so.2:_ZN4XMPP16JT_ClientVersion11qt_metacastEPKc
libiris_ksirk.so.2:_ZN4XMPP16JT_ClientVersion3getERKNS_3JidE
libiris_ksirk.so.2:_ZN4XMPP16JT_ClientVersion4onGoEv
libiris_ksirk.so.2:_ZN4XMPP16JT_ClientVersion4takeERK11QDomElement
libiris_ksirk.so.2:_ZN4XMPP16JT_ClientVersionC1EPNS_4TaskE
libiris_ksirk.so.2:_ZN4XMPP16JT_ClientVersionC2EPNS_4TaskE
libiris_ksirk.so.2:_ZN4XMPP17AdvancedConnector10do_connectEv
libiris_ksirk.so.2:_ZN4XMPP17AdvancedConnector10do_resolveEv
libiris_ksirk.so.2:_ZN4XMPP17AdvancedConnector10tryNextSrvEv
libiris_ksirk.so.2:_ZN4XMPP17AdvancedConnector11qt_metacallEN11QMetaObject4CallEiPPv
libiris_ksirk.so.2:_ZN4XMPP17AdvancedConnector11qt_metacastEPKc
libiris_ksirk.so.2:_ZN4XMPP17AdvancedConnector11setOptProbeEb
libiris_ksirk.so.2:_ZN4XMPP17AdvancedConnector12bs_connectedEv
libiris_ksirk.so.2:_ZN4XMPP17AdvancedConnector14setOptHostPortERK7QStringt
libiris_ksirk.so.2:_ZN4XMPP17AdvancedConnector15connectToServerERK7QString
libiris_ksirk.so.2:_ZN4XMPP17AdvancedConnector15httpSyncStartedEv
libiris_ksirk.so.2:_ZN4XMPP17AdvancedConnector15setOptHostsPortERK11QStringListt
libiris_ksirk.so.2:_ZN4XMPP17AdvancedConnector16httpSyncFinishedEv
libiris_ksirk.so.2:_ZN4XMPP17AdvancedConnector16http_syncStartedEv
libiris_ksirk.so.2:_ZN4XMPP17AdvancedConnector17http_syncFinishedEv
libiris_ksirk.so.2:_ZN4XMPP17AdvancedConnector18changePollIntervalEi
libiris_ksirk.so.2:_ZN4XMPP17AdvancedConnector4doneEv
libiris_ksirk.so.2:_ZN4XMPP17AdvancedConnector5Proxy11setHttpPollERK7QStringtS4_
libiris_ksirk.so.2:_ZN4XMPP17AdvancedConnector5Proxy11setUserPassERK7QStringS4_
libiris_ksirk.so.2:_ZN4XMPP17AdvancedConnector5Proxy14setHttpConnectERK7QStringt
libiris_ksirk.so.2:_ZN4XMPP17AdvancedConnector5Proxy15setPollIntervalEi
libiris_ksirk.so.2:_ZN4XMPP17AdvancedConnector5Proxy8setSocksERK7QStringt
libiris_ksirk.so.2:_ZN4XMPP17AdvancedConnector5ProxyC1Ev
libiris_ksirk.so.2:_ZN4XMPP17AdvancedConnector5ProxyC2Ev
libiris_ksirk.so.2:_ZN4XMPP17AdvancedConnector5ProxyD1Ev
libiris_ksirk.so.2:_ZN4XMPP17AdvancedConnector5ProxyD2Ev
libiris_ksirk.so.2:_ZN4XMPP17AdvancedConnector7cleanupEv
libiris_ksirk.so.2:_ZN4XMPP17AdvancedConnector8bs_errorEi
libiris_ksirk.so.2:_ZN4XMPP17AdvancedConnector8dns_doneEv
libiris_ksirk.so.2:_ZN4XMPP17AdvancedConnector8setProxyERKNS0_5ProxyE
libiris_ksirk.so.2:_ZN4XMPP17AdvancedConnector8srv_doneEv
libiris_ksirk.so.2:_ZN4XMPP17AdvancedConnector9setOptSSLEb
libiris_ksirk.so.2:_ZN4XMPP17AdvancedConnector9srvLookupERK7QString
libiris_ksirk.so.2:_ZN4XMPP17AdvancedConnector9srvResultEb
libiris_ksirk.so.2:_ZN4XMPP17AdvancedConnector9t_timeoutEv
libiris_ksirk.so.2:_ZN4XMPP17AdvancedConnectorC1EP7QObject
libiris_ksirk.so.2:_ZN4XMPP17AdvancedConnectorC2EP7QObject
libiris_ksirk.so.2:_ZN4XMPP17AdvancedConnectorD0Ev
libiris_ksirk.so.2:_ZN4XMPP17AdvancedConnectorD1Ev
libiris_ksirk.so.2:_ZN4XMPP17AdvancedConnectorD2Ev
libiris_ksirk.so.2:_ZN4XMPP3Jid11setResourceERK7QString
libiris_ksirk.so.2:_ZN4XMPP3Jid3setERK7QString
libiris_ksirk.so.2:_ZN4XMPP3Jid3setERK7QStringS3_S3_
libiris_ksirk.so.2:_ZN4XMPP3Jid5resetEv
libiris_ksirk.so.2:_ZN4XMPP3Jid6updateEv
libiris_ksirk.so.2:_ZN4XMPP3Jid7setNodeERK7QString
libiris_ksirk.so.2:_ZN4XMPP3Jid9setDomainERK7QString
libiris_ksirk.so.2:_ZN4XMPP3JidC1EPKc
libiris_ksirk.so.2:_ZN4XMPP3JidC1ERK7QString
libiris_ksirk.so.2:_ZN4XMPP3JidC1ERK7QStringS3_S3_
libiris_ksirk.so.2:_ZN4XMPP3JidC1Ev
libiris_ksirk.so.2:_ZN4XMPP3JidC2EPKc
libiris_ksirk.so.2:_ZN4XMPP3JidC2ERK7QString
libiris_ksirk.so.2:_ZN4XMPP3JidC2ERK7QStringS3_S3_
libiris_ksirk.so.2:_ZN4XMPP3JidC2Ev
libiris_ksirk.so.2:_ZN4XMPP3JidD1Ev
libiris_ksirk.so.2:_ZN4XMPP3JidD2Ev
libiris_ksirk.so.2:_ZN4XMPP3JidaSEPKc
libiris_ksirk.so.2:_ZN4XMPP3JidaSERK7QString
libiris_ksirk.so.2:_ZN4XMPP4Task10safeDeleteEv
libiris_ksirk.so.2:_ZN4XMPP4Task10setSuccessEiRK7QString
libiris_ksirk.so.2:_ZN4XMPP4Task11qt_metacallEN11QMetaObject4CallEiPPv
libiris_ksirk.so.2:_ZN4XMPP4Task11qt_metacastEPKc
libiris_ksirk.so.2:_ZN4XMPP4Task12onDisconnectEv
libiris_ksirk.so.2:_ZN4XMPP4Task18clientDisconnectedEv
libiris_ksirk.so.2:_ZN4XMPP4Task2goEb
libiris_ksirk.so.2:_ZN4XMPP4Task4doneEv
libiris_ksirk.so.2:_ZN4XMPP4Task4initEv
libiris_ksirk.so.2:_ZN4XMPP4Task4onGoEv
libiris_ksirk.so.2:_ZN4XMPP4Task4sendERK11QDomElement
libiris_ksirk.so.2:_ZN4XMPP4Task4takeERK11QDomElement
libiris_ksirk.so.2:_ZN4XMPP4Task5debugEPKcz
libiris_ksirk.so.2:_ZN4XMPP4Task5debugERK7QString
libiris_ksirk.so.2:_ZN4XMPP4Task8finishedEv
libiris_ksirk.so.2:_ZN4XMPP4Task8iqVerifyERK11QDomElementRKNS_3JidERK7QStringS9_
libiris_ksirk.so.2:_ZN4XMPP4Task8setErrorERK11QDomElement
libiris_ksirk.so.2:_ZN4XMPP4Task8setErrorEiRK7QString
libiris_ksirk.so.2:_ZN4XMPP4TaskC1EPNS_6ClientEb
libiris_ksirk.so.2:_ZN4XMPP4TaskC1EPS0_
libiris_ksirk.so.2:_ZN4XMPP4TaskC2EPNS_6ClientEb
libiris_ksirk.so.2:_ZN4XMPP4TaskC2EPS0_
libiris_ksirk.so.2:_ZN4XMPP4TaskD0Ev
libiris_ksirk.so.2:_ZN4XMPP4TaskD1Ev
libiris_ksirk.so.2:_ZN4XMPP4TaskD2Ev
libiris_ksirk.so.2:_ZN4XMPP6Client10distributeERK11QDomElement
libiris_ksirk.so.2:_ZN4XMPP6Client10ppPresenceERKNS_3JidERKNS_6StatusE
libiris_ksirk.so.2:_ZN4XMPP6Client11genUniqueIdEv
libiris_ksirk.so.2:_ZN4XMPP6Client11qt_metacallEN11QMetaObject4CallEiPPv
libiris_ksirk.so.2:_ZN4XMPP6Client11qt_metacastEPKc
libiris_ksirk.so.2:_ZN4XMPP6Client11sendMessageERKNS_7MessageE
libiris_ksirk.so.2:_ZN4XMPP6Client11setCapsNodeERK7QString
libiris_ksirk.so.2:_ZN4XMPP6Client11setFeaturesERKNS_8FeaturesE
libiris_ksirk.so.2:_ZN4XMPP6Client11setIdentityENS_9DiscoItem8IdentityE
libiris_ksirk.so.2:_ZN4XMPP6Client11setPresenceERKNS_6StatusE
libiris_ksirk.so.2:_ZN4XMPP6Client11setTimeZoneERK7QStringi
libiris_ksirk.so.2:_ZN4XMPP6Client11streamErrorEi
libiris_ksirk.so.2:_ZN4XMPP6Client11xmlIncomingERK7QString
libiris_ksirk.so.2:_ZN4XMPP6Client11xmlOutgoingERK7QString
libiris_ksirk.so.2:_ZN4XMPP6Client12addExtensionERK7QStringRKNS_8FeaturesE
libiris_ksirk.so.2:_ZN4XMPP6Client12disconnectedEv
libiris_ksirk.so.2:_ZN4XMPP6Client12importRosterERKNS_6RosterE
libiris_ksirk.so.2:_ZN4XMPP6Client12subscriptionERKNS_3JidERK7QStringS6_
libiris_ksirk.so.2:_ZN4XMPP6Client13groupChatJoinERK7QStringS3_S3_S3_iiiRKNS_6StatusE
libiris_ksirk.so.2:_ZN4XMPP6Client13groupChatLeftERKNS_3JidE
libiris_ksirk.so.2:_ZN4XMPP6Client13presenceErrorERKNS_3JidEiRK7QString
libiris_ksirk.so.2:_ZN4XMPP6Client13rosterRequestEv
libiris_ksirk.so.2:_ZN4XMPP6Client13setClientNameERK7QString
libiris_ksirk.so.2:_ZN4XMPP6Client14groupChatErrorERKNS_3JidEiRK7QString
libiris_ksirk.so.2:_ZN4XMPP6Client14groupChatLeaveERK7QStringS3_
libiris_ksirk.so.2:_ZN4XMPP6Client14ppSubscriptionERKNS_3JidERK7QStringS6_
libiris_ksirk.so.2:_ZN4XMPP6Client14setCapsVersionERK7QString
libiris_ksirk.so.2:_ZN4XMPP6Client14updatePresenceEPNS_14LiveRosterItemERKNS_3JidERKNS_6StatusE
libiris_ksirk.so.2:_ZN4XMPP6Client15connectToServerEPNS_12ClientStreamERKNS_3JidEb
libiris_ksirk.so.2:_ZN4XMPP6Client15groupChatJoinedERKNS_3JidE
libiris_ksirk.so.2:_ZN4XMPP6Client15incomingJidLinkEv
libiris_ksirk.so.2:_ZN4XMPP6Client15messageReceivedERKNS_7MessageE
libiris_ksirk.so.2:_ZN4XMPP6Client15removeExtensionERK7QString
libiris_ksirk.so.2:_ZN4XMPP6Client15rosterItemAddedERKNS_10RosterItemE
libiris_ksirk.so.2:_ZN4XMPP6Client15streamReadyReadEv
libiris_ksirk.so.2:_ZN4XMPP6Client16importRosterItemERKNS_10RosterItemE
libiris_ksirk.so.2:_ZN4XMPP6Client16sendSubscriptionERKNS_3JidERK7QStringS6_
libiris_ksirk.so.2:_ZN4XMPP6Client16setClientVersionERK7QString
libiris_ksirk.so.2:_ZN4XMPP6Client17groupChatPresenceERKNS_3JidERKNS_6StatusE
libiris_ksirk.so.2:_ZN4XMPP6Client17ibb_incomingReadyEv
libiris_ksirk.so.2:_ZN4XMPP6Client17resourceAvailableERKNS_3JidERKNS_8ResourceE
libiris_ksirk.so.2:_ZN4XMPP6Client17rosterItemRemovedERKNS_10RosterItemE
libiris_ksirk.so.2:_ZN4XMPP6Client17rosterItemUpdatedERKNS_10RosterItemE
libiris_ksirk.so.2:_ZN4XMPP6Client17s5b_incomingReadyEv
libiris_ksirk.so.2:_ZN4XMPP6Client17streamIncomingXmlERK7QString
libiris_ksirk.so.2:_ZN4XMPP6Client17streamOutgoingXmlERK7QString
libiris_ksirk.so.2:_ZN4XMPP6Client18groupChatSetStatusERK7QStringS3_RKNS_6StatusE
libiris_ksirk.so.2:_ZN4XMPP6Client18updateSelfPresenceERKNS_3JidERKNS_6StatusE
libiris_ksirk.so.2:_ZN4XMPP6Client19groupChatChangeNickERK7QStringS3_S3_RKNS_6StatusE
libiris_ksirk.so.2:_ZN4XMPP6Client19resourceUnavailableERKNS_3JidERKNS_8ResourceE
libiris_ksirk.so.2:_ZN4XMPP6Client21rosterRequestFinishedEbiRK7QString
libiris_ksirk.so.2:_ZN4XMPP6Client22setFileTransferEnabledEb
libiris_ksirk.so.2:_ZN4XMPP6Client25slotRosterRequestFinishedEv
libiris_ksirk.so.2:_ZN4XMPP6Client4sendERK11QDomElement
libiris_ksirk.so.2:_ZN4XMPP6Client4sendERK7QString
libiris_ksirk.so.2:_ZN4XMPP6Client5closeEb
libiris_ksirk.so.2:_ZN4XMPP6Client5debugERK7QString
libiris_ksirk.so.2:_ZN4XMPP6Client5startERK7QStringS3_S3_S3_
libiris_ksirk.so.2:_ZN4XMPP6Client6streamEv
libiris_ksirk.so.2:_ZN4XMPP6Client7cleanupEv
libiris_ksirk.so.2:_ZN4XMPP6Client8identityEv
libiris_ksirk.so.2:_ZN4XMPP6Client8prRosterERKNS_6RosterE
libiris_ksirk.so.2:_ZN4XMPP6Client8rootTaskEv
libiris_ksirk.so.2:_ZN4XMPP6Client9activatedEv
libiris_ksirk.so.2:_ZN4XMPP6Client9debugTextERK7QString
libiris_ksirk.so.2:_ZN4XMPP6Client9pmMessageERKNS_7MessageE
libiris_ksirk.so.2:_ZN4XMPP6Client9setOSNameERK7QString
libiris_ksirk.so.2:_ZN4XMPP6ClientC1EP7QObject
libiris_ksirk.so.2:_ZN4XMPP6ClientC2EP7QObject
libiris_ksirk.so.2:_ZN4XMPP6ClientD0Ev
libiris_ksirk.so.2:_ZN4XMPP6ClientD1Ev
libiris_ksirk.so.2:_ZN4XMPP6ClientD2Ev
libiris_ksirk.so.2:_ZN4XMPP6JT_S5B11qt_metacallEN11QMetaObject4CallEiPPv
libiris_ksirk.so.2:_ZN4XMPP6JT_S5B11qt_metacastEPKc
libiris_ksirk.so.2:_ZN4XMPP6JT_S5B12onDisconnectEv
libiris_ksirk.so.2:_ZN4XMPP6JT_S5B16requestProxyInfoERKNS_3JidE
libiris_ksirk.so.2:_ZN4XMPP6JT_S5B17requestActivationERKNS_3JidERK7QStringS3_
libiris_ksirk.so.2:_ZN4XMPP6JT_S5B4onGoEv
libiris_ksirk.so.2:_ZN4XMPP6JT_S5B4takeERK11QDomElement
libiris_ksirk.so.2:_ZN4XMPP6JT_S5B7requestERKNS_3JidERK7QStringRK5QListINS_10StreamHostEEbb
libiris_ksirk.so.2:_ZN4XMPP6JT_S5B9t_timeoutEv
libiris_ksirk.so.2:_ZN4XMPP6JT_S5BC1EPNS_4TaskE
libiris_ksirk.so.2:_ZN4XMPP6JT_S5BC2EPNS_4TaskE
libiris_ksirk.so.2:_ZN4XMPP6JT_S5BD0Ev
libiris_ksirk.so.2:_ZN4XMPP6JT_S5BD1Ev
libiris_ksirk.so.2:_ZN4XMPP6JT_S5BD2Ev
libiris_ksirk.so.2:_ZN4XMPP6Stanza10clearErrorEv
libiris_ksirk.so.2:_ZN4XMPP6Stanza11appendChildERK11QDomElement
libiris_ksirk.so.2:_ZN4XMPP6Stanza13createElementERK7QStringS3_
libiris_ksirk.so.2:_ZN4XMPP6Stanza17createTextElementERK7QStringS3_S3_
libiris_ksirk.so.2:_ZN4XMPP6Stanza5Error7fromXmlERK11QDomElementRK7QString
libiris_ksirk.so.2:_ZN4XMPP6Stanza5Error8fromCodeEi
libiris_ksirk.so.2:_ZN4XMPP6Stanza5ErrorC1EiiRK7QStringRK11QDomElement
libiris_ksirk.so.2:_ZN4XMPP6Stanza5ErrorC2EiiRK7QStringRK11QDomElement
libiris_ksirk.so.2:_ZN4XMPP6Stanza5setIdERK7QString
libiris_ksirk.so.2:_ZN4XMPP6Stanza5setToERKNS_3JidE
libiris_ksirk.so.2:_ZN4XMPP6Stanza7setFromERKNS_3JidE
libiris_ksirk.so.2:_ZN4XMPP6Stanza7setKindENS0_4KindE
libiris_ksirk.so.2:_ZN4XMPP6Stanza7setLangERK7QString
libiris_ksirk.so.2:_ZN4XMPP6Stanza7setTypeERK7QString
libiris_ksirk.so.2:_ZN4XMPP6Stanza8setErrorERKNS0_5ErrorE
libiris_ksirk.so.2:_ZN4XMPP6StanzaC1EPNS_6StreamENS0_4KindERKNS_3JidERK7QStringS9_
libiris_ksirk.so.2:_ZN4XMPP6StanzaC1EPNS_6StreamERK11QDomElement
libiris_ksirk.so.2:_ZN4XMPP6StanzaC1ERKS0_
libiris_ksirk.so.2:_ZN4XMPP6StanzaC1Ev
libiris_ksirk.so.2:_ZN4XMPP6StanzaC2EPNS_6StreamENS0_4KindERKNS_3JidERK7QStringS9_
libiris_ksirk.so.2:_ZN4XMPP6StanzaC2EPNS_6StreamERK11QDomElement
libiris_ksirk.so.2:_ZN4XMPP6StanzaC2ERKS0_
libiris_ksirk.so.2:_ZN4XMPP6StanzaC2Ev
libiris_ksirk.so.2:_ZN4XMPP6StanzaD0Ev
libiris_ksirk.so.2:_ZN4XMPP6StanzaD1Ev
libiris_ksirk.so.2:_ZN4XMPP6StanzaD2Ev
libiris_ksirk.so.2:_ZN4XMPP6StanzaaSERKS0_
libiris_ksirk.so.2:_ZN4XMPP6Status10setCapsExtERK7QString
libiris_ksirk.so.2:_ZN4XMPP6Status10setMUCItemERKNS_7MUCItemE
libiris_ksirk.so.2:_ZN4XMPP6Status10setXSignedERK7QString
libiris_ksirk.so.2:_ZN4XMPP6Status11setCapsNodeERK7QString
libiris_ksirk.so.2:_ZN4XMPP6Status11setPriorityEi
libiris_ksirk.so.2:_ZN4XMPP6Status12addMUCStatusEi
libiris_ksirk.so.2:_ZN4XMPP6Status12setPhotoHashERK7QString
libiris_ksirk.so.2:_ZN4XMPP6Status12setSongTitleERK7QString
libiris_ksirk.so.2:_ZN4XMPP6Status12setTimeStampERK9QDateTime
libiris_ksirk.so.2:_ZN4XMPP6Status13setMUCDestroyERKNS_10MUCDestroyE
libiris_ksirk.so.2:_ZN4XMPP6Status13setMUCHistoryEiii
libiris_ksirk.so.2:_ZN4XMPP6Status14setCapsVersionERK7QString
libiris_ksirk.so.2:_ZN4XMPP6Status14setIsAvailableEb
libiris_ksirk.so.2:_ZN4XMPP6Status14setIsInvisibleEb
libiris_ksirk.so.2:_ZN4XMPP6Status14setMUCPasswordERK7QString
libiris_ksirk.so.2:_ZN4XMPP6Status6setMUCEv
libiris_ksirk.so.2:_ZN4XMPP6Status7setShowERK7QString
libiris_ksirk.so.2:_ZN4XMPP6Status7setTypeE7QString
libiris_ksirk.so.2:_ZN4XMPP6Status7setTypeENS0_4TypeE
libiris_ksirk.so.2:_ZN4XMPP6Status8setErrorEiRK7QString
libiris_ksirk.so.2:_ZN4XMPP6Status8setKeyIDERK7QString
libiris_ksirk.so.2:_ZN4XMPP6Status9setStatusERK7QString
libiris_ksirk.so.2:_ZN4XMPP6StatusC1ENS0_4TypeERK7QStringi
libiris_ksirk.so.2:_ZN4XMPP6StatusC1ERK7QStringS3_ib
libiris_ksirk.so.2:_ZN4XMPP6StatusC2ENS0_4TypeERK7QStringi
libiris_ksirk.so.2:_ZN4XMPP6StatusC2ERK7QStringS3_ib
libiris_ksirk.so.2:_ZN4XMPP6StatusD1Ev
libiris_ksirk.so.2:_ZN4XMPP6StatusD2Ev
libiris_ksirk.so.2:_ZN4XMPP7Message10addAddressERKNS_7AddressE
libiris_ksirk.so.2:_ZN4XMPP7Message10fromStanzaERKNS_6StanzaEi
libiris_ksirk.so.2:_ZN4XMPP7Message10setEventIdERK7QString
libiris_ksirk.so.2:_ZN4XMPP7Message10setSpooledEb
libiris_ksirk.so.2:_ZN4XMPP7Message10setSubjectERK7QStringS3_
libiris_ksirk.so.2:_ZN4XMPP7Message10setUrlListERK5QListINS_3UrlEE
libiris_ksirk.so.2:_ZN4XMPP7Message12addMUCInviteERKNS_9MUCInviteE
libiris_ksirk.so.2:_ZN4XMPP7Message12addMUCStatusEi
libiris_ksirk.so.2:_ZN4XMPP7Message12setAddressesERK5QListINS_7AddressEE
libiris_ksirk.so.2:_ZN4XMPP7Message12setChatStateENS_9ChatStateE
libiris_ksirk.so.2:_ZN4XMPP7Message12setTimeStampERK9QDateTimeb
libiris_ksirk.so.2:_ZN4XMPP7Message13setMUCDeclineERKNS_10MUCDeclineE
libiris_ksirk.so.2:_ZN4XMPP7Message13setXEncryptedERK7QString
libiris_ksirk.so.2:_ZN4XMPP7Message14clearAddressesEv
libiris_ksirk.so.2:_ZN4XMPP7Message14setMUCPasswordERK7QString
libiris_ksirk.so.2:_ZN4XMPP7Message15setWasEncryptedEb
libiris_ksirk.so.2:_ZN4XMPP7Message17setMessageReceiptENS_14MessageReceiptE
libiris_ksirk.so.2:_ZN4XMPP7Message18setHttpAuthRequestERKNS_15HttpAuthRequestE
libiris_ksirk.so.2:_ZN4XMPP7Message22setRosterExchangeItemsERK5QListINS_18RosterExchangeItemEE
libiris_ksirk.so.2:_ZN4XMPP7Message5setIdERK7QString
libiris_ksirk.so.2:_ZN4XMPP7Message5setToERKNS_3JidE
libiris_ksirk.so.2:_ZN4XMPP7Message6setSxeERK11QDomElement
libiris_ksirk.so.2:_ZN4XMPP7Message6urlAddERKNS_3UrlE
libiris_ksirk.so.2:_ZN4XMPP7Message7setBodyERK7QStringS3_
libiris_ksirk.so.2:_ZN4XMPP7Message7setFormERKNS_5XDataE
libiris_ksirk.so.2:_ZN4XMPP7Message7setFromERKNS_3JidE
libiris_ksirk.so.2:_ZN4XMPP7Message7setLangERK7QString
libiris_ksirk.so.2:_ZN4XMPP7Message7setNickERK7QString
libiris_ksirk.so.2:_ZN4XMPP7Message7setTypeERK7QString
libiris_ksirk.so.2:_ZN4XMPP7Message8addEventENS_8MsgEventE
libiris_ksirk.so.2:_ZN4XMPP7Message8setErrorERKNS_6Stanza5ErrorE
libiris_ksirk.so.2:_ZN4XMPP7Message9setInviteERK7QString
libiris_ksirk.so.2:_ZN4XMPP7Message9setThreadERK7QStringb
libiris_ksirk.so.2:_ZN4XMPP7Message9urlsClearEv
libiris_ksirk.so.2:_ZN4XMPP7MessageC1ERKNS_3JidE
libiris_ksirk.so.2:_ZN4XMPP7MessageC1ERKS0_
libiris_ksirk.so.2:_ZN4XMPP7MessageC2ERKNS_3JidE
libiris_ksirk.so.2:_ZN4XMPP7MessageC2ERKS0_
libiris_ksirk.so.2:_ZN4XMPP7MessageD1Ev
libiris_ksirk.so.2:_ZN4XMPP7MessageD2Ev
libiris_ksirk.so.2:_ZN4XMPP7MessageaSERKS0_
libiris_ksirk.so.2:_ZN4XMPP8JT_VCard11qt_metacallEN11QMetaObject4CallEiPPv
libiris_ksirk.so.2:_ZN4XMPP8JT_VCard11qt_metacastEPKc
libiris_ksirk.so.2:_ZN4XMPP8JT_VCard3getERKNS_3JidE
libiris_ksirk.so.2:_ZN4XMPP8JT_VCard3setERKNS_3JidERKNS_5VCardE
libiris_ksirk.so.2:_ZN4XMPP8JT_VCard3setERKNS_5VCardE
libiris_ksirk.so.2:_ZN4XMPP8JT_VCard4onGoEv
libiris_ksirk.so.2:_ZN4XMPP8JT_VCard4takeERK11QDomElement
libiris_ksirk.so.2:_ZN4XMPP8JT_VCardC1EPNS_4TaskE
libiris_ksirk.so.2:_ZN4XMPP8JT_VCardC2EPNS_4TaskE
libiris_ksirk.so.2:_ZN4XMPP8JT_VCardD0Ev
libiris_ksirk.so.2:_ZN4XMPP8JT_VCardD1Ev
libiris_ksirk.so.2:_ZN4XMPP8JT_VCardD2Ev
libiris_ksirk.so.2:_ZN4XMPP8Resource7setNameERK7QString
libiris_ksirk.so.2:_ZN4XMPP8Resource9setStatusERKNS_6StatusE
libiris_ksirk.so.2:_ZN4XMPP8ResourceC1ERK7QStringRKNS_6StatusE
libiris_ksirk.so.2:_ZN4XMPP8ResourceC2ERK7QStringRKNS_6StatusE
libiris_ksirk.so.2:_ZN4XMPP8ResourceD1Ev
libiris_ksirk.so.2:_ZN4XMPP8ResourceD2Ev
libiris_ksirk.so.2:_ZN4XMPP9Connector11qt_metacallEN11QMetaObject4CallEiPPv
libiris_ksirk.so.2:_ZN4XMPP9Connector11qt_metacastEPKc
libiris_ksirk.so.2:_ZN4XMPP9Connector14setPeerAddressERK12QHostAddresst
libiris_ksirk.so.2:_ZN4XMPP9Connector18setPeerAddressNoneEv
libiris_ksirk.so.2:_ZN4XMPP9Connector5errorEv
libiris_ksirk.so.2:_ZN4XMPP9Connector9connectedEv
libiris_ksirk.so.2:_ZN4XMPP9Connector9setUseSSLEb
libiris_ksirk.so.2:_ZN4XMPP9ConnectorC1EP7QObject
libiris_ksirk.so.2:_ZN4XMPP9ConnectorC2EP7QObject
libiris_ksirk.so.2:_ZN4XMPP9ConnectorD0Ev
libiris_ksirk.so.2:_ZN4XMPP9ConnectorD1Ev
libiris_ksirk.so.2:_ZN4XMPP9ConnectorD2Ev
libiris_ksirk.so.2:_ZN4XMPP9JT_Browse11qt_metacallEN11QMetaObject4CallEiPPv
libiris_ksirk.so.2:_ZN4XMPP9JT_Browse11qt_metacastEPKc
libiris_ksirk.so.2:_ZN4XMPP9JT_Browse12browseHelperERK11QDomElement
libiris_ksirk.so.2:_ZN4XMPP9JT_Browse3getERKNS_3JidE
libiris_ksirk.so.2:_ZN4XMPP9JT_Browse4onGoEv
libiris_ksirk.so.2:_ZN4XMPP9JT_Browse4takeERK11QDomElement
libiris_ksirk.so.2:_ZN4XMPP9JT_BrowseC1EPNS_4TaskE
libiris_ksirk.so.2:_ZN4XMPP9JT_BrowseC2EPNS_4TaskE
libiris_ksirk.so.2:_ZN4XMPP9JT_BrowseD0Ev
libiris_ksirk.so.2:_ZN4XMPP9JT_BrowseD1Ev
libiris_ksirk.so.2:_ZN4XMPP9JT_BrowseD2Ev
libiris_ksirk.so.2:_ZN4XMPP9JT_Roster10fromStringERK7QString
libiris_ksirk.so.2:_ZN4XMPP9JT_Roster11qt_metacallEN11QMetaObject4CallEiPPv
libiris_ksirk.so.2:_ZN4XMPP9JT_Roster11qt_metacastEPKc
libiris_ksirk.so.2:_ZN4XMPP9JT_Roster3getEv
libiris_ksirk.so.2:_ZN4XMPP9JT_Roster3setERKNS_3JidERK7QStringRK11QStringList
libiris_ksirk.so.2:_ZN4XMPP9JT_Roster4onGoEv
libiris_ksirk.so.2:_ZN4XMPP9JT_Roster4takeERK11QDomElement
libiris_ksirk.so.2:_ZN4XMPP9JT_Roster6removeERKNS_3JidE
libiris_ksirk.so.2:_ZN4XMPP9JT_RosterC1EPNS_4TaskE
libiris_ksirk.so.2:_ZN4XMPP9JT_RosterC2EPNS_4TaskE
libiris_ksirk.so.2:_ZN4XMPP9JT_RosterD0Ev
libiris_ksirk.so.2:_ZN4XMPP9JT_RosterD1Ev
libiris_ksirk.so.2:_ZN4XMPP9JT_RosterD2Ev
libiris_ksirk.so.2:_ZN4XMPP9JT_Search11qt_metacallEN11QMetaObject4CallEiPPv
libiris_ksirk.so.2:_ZN4XMPP9JT_Search11qt_metacastEPKc
libiris_ksirk.so.2:_ZN4XMPP9JT_Search3getERKNS_3JidE
libiris_ksirk.so.2:_ZN4XMPP9JT_Search3setERKNS_3JidERKNS_5XDataE
libiris_ksirk.so.2:_ZN4XMPP9JT_Search3setERKNS_4FormE
libiris_ksirk.so.2:_ZN4XMPP9JT_Search4onGoEv
libiris_ksirk.so.2:_ZN4XMPP9JT_Search4takeERK11QDomElement
libiris_ksirk.so.2:_ZN4XMPP9JT_SearchC1EPNS_4TaskE
libiris_ksirk.so.2:_ZN4XMPP9JT_SearchC2EPNS_4TaskE
libiris_ksirk.so.2:_ZN4XMPP9JT_SearchD0Ev
libiris_ksirk.so.2:_ZN4XMPP9JT_SearchD1Ev
libiris_ksirk.so.2:_ZN4XMPP9JT_SearchD2Ev
libiris_ksirk.so.2:_ZN4XMPP9S5BServer11item_resultEb
libiris_ksirk.so.2:_ZN4XMPP9S5BServer11qt_metacallEN11QMetaObject4CallEiPPv
libiris_ksirk.so.2:_ZN4XMPP9S5BServer11qt_metacastEPKc
libiris_ksirk.so.2:_ZN4XMPP9S5BServer11setHostListERK11QStringList
libiris_ksirk.so.2:_ZN4XMPP9S5BServer14ss_incomingUDPERK7QStringiRK12QHostAddressiRK10QByteArray
libiris_ksirk.so.2:_ZN4XMPP9S5BServer16ss_incomingReadyEv
libiris_ksirk.so.2:_ZN4XMPP9S5BServer4Item11qt_metacallEN11QMetaObject4CallEiPPv
libiris_ksirk.so.2:_ZN4XMPP9S5BServer4Item11qt_metacastEPKc
libiris_ksirk.so.2:_ZN4XMPP9S5BServer4Item6resultEb
libiris_ksirk.so.2:_ZN4XMPP9S5BServer4linkEPNS_10S5BManagerE
libiris_ksirk.so.2:_ZN4XMPP9S5BServer4stopEv
libiris_ksirk.so.2:_ZN4XMPP9S5BServer5startEi
libiris_ksirk.so.2:_ZN4XMPP9S5BServer6unlinkEPNS_10S5BManagerE
libiris_ksirk.so.2:_ZN4XMPP9S5BServer8writeUDPERK12QHostAddressiRK10QByteArray
libiris_ksirk.so.2:_ZN4XMPP9S5BServer9unlinkAllEv
libiris_ksirk.so.2:_ZN4XMPP9S5BServerC1EP7QObject
libiris_ksirk.so.2:_ZN4XMPP9S5BServerC2EP7QObject
libiris_ksirk.so.2:_ZN4XMPP9S5BServerD0Ev
libiris_ksirk.so.2:_ZN4XMPP9S5BServerD1Ev
libiris_ksirk.so.2:_ZN4XMPP9S5BServerD2Ev
libiris_ksirk.so.2:_ZN7BSocket10do_connectEv
libiris_ksirk.so.2:_ZN7BSocket11qt_metacallEN11QMetaObject4CallEiPPv
libiris_ksirk.so.2:_ZN7BSocket11qt_metacastEPKc
libiris_ksirk.so.2:_ZN7BSocket12ensureSocketEv
libiris_ksirk.so.2:_ZN7BSocket12qs_connectedEv
libiris_ksirk.so.2:_ZN7BSocket12qs_hostFoundEv
libiris_ksirk.so.2:_ZN7BSocket12qs_readyReadEv
libiris_ksirk.so.2:_ZN7BSocket13connectToHostERK7QStringt
libiris_ksirk.so.2:_ZN7BSocket15connectToServerERK7QStringS2_
libiris_ksirk.so.2:_ZN7BSocket15qs_bytesWrittenEx
libiris_ksirk.so.2:_ZN7BSocket4readEi
libiris_ksirk.so.2:_ZN7BSocket5closeEv
libiris_ksirk.so.2:_ZN7BSocket5resetEb
libiris_ksirk.so.2:_ZN7BSocket5writeERK10QByteArray
libiris_ksirk.so.2:_ZN7BSocket8qs_errorEN15QAbstractSocket11SocketErrorE
libiris_ksirk.so.2:_ZN7BSocket8srv_doneEv
libiris_ksirk.so.2:_ZN7BSocket9connectedEv
libiris_ksirk.so.2:_ZN7BSocket9hostFoundEv
libiris_ksirk.so.2:_ZN7BSocket9ndns_doneEv
libiris_ksirk.so.2:_ZN7BSocket9qs_closedEv
libiris_ksirk.so.2:_ZN7BSocket9setSocketEi
libiris_ksirk.so.2:_ZN7BSocketC1EP7QObject
libiris_ksirk.so.2:_ZN7BSocketC2EP7QObject
libiris_ksirk.so.2:_ZN7BSocketD0Ev
libiris_ksirk.so.2:_ZN7BSocketD1Ev
libiris_ksirk.so.2:_ZN7BSocketD2Ev
libiris_ksirk.so.2:_ZN9XMLHelper10subTagTextERK11QDomElementRK7QString
libiris_ksirk.so.2:_ZN9XMLHelper12readNumEntryERK11QDomElementRK7QStringPi
libiris_ksirk.so.2:_ZN9XMLHelper13readBoolEntryERK11QDomElementRK7QStringPb
libiris_ksirk.so.2:_ZN9XMLHelper13readRectEntryERK11QDomElementRK7QStringP5QRect
libiris_ksirk.so.2:_ZN9XMLHelper13readSizeEntryERK11QDomElementRK7QStringP5QSize
libiris_ksirk.so.2:_ZN9XMLHelper14readColorEntryERK11QDomElementRK7QStringP6QColor
libiris_ksirk.so.2:_ZN9XMLHelper15stringListToXmlER12QDomDocumentRK7QStringRK11QStringList
libiris_ksirk.so.2:_ZN9XMLHelper15xmlToStringListERK11QDomElementRK7QStringP11QStringList
libiris_ksirk.so.2:_ZN9XMLHelper16setBoolAttributeE11QDomElementRK7QStringb
libiris_ksirk.so.2:_ZN9XMLHelper17readBoolAttributeE11QDomElementRK7QStringPb
libiris_ksirk.so.2:_ZN9XMLHelper7textTagER12QDomDocumentRK7QStringR5QRect
libiris_ksirk.so.2:_ZN9XMLHelper7textTagER12QDomDocumentRK7QStringR5QSize
libiris_ksirk.so.2:_ZN9XMLHelper7textTagER12QDomDocumentRK7QStringS4_
libiris_ksirk.so.2:_ZN9XMLHelper7textTagER12QDomDocumentRK7QStringb
libiris_ksirk.so.2:_ZN9XMLHelper7textTagER12QDomDocumentRK7QStringi
libiris_ksirk.so.2:_ZN9XMLHelper8emptyTagEP12QDomDocumentRK7QString
libiris_ksirk.so.2:_ZN9XMLHelper9hasSubTagERK11QDomElementRK7QString
libiris_ksirk.so.2:_ZN9XMLHelper9readEntryERK11QDomElementRK7QStringPS3_
libiris_ksirk.so.2:_ZNK10ByteStream10metaObjectEv
libiris_ksirk.so.2:_ZNK10ByteStream12bytesToWriteEv
libiris_ksirk.so.2:_ZNK10ByteStream14bytesAvailableEv
libiris_ksirk.so.2:_ZNK10ByteStream6isOpenEv
libiris_ksirk.so.2:_ZNK12XDomNodeList4itemEi
libiris_ksirk.so.2:_ZNK12XDomNodeList6lengthEv
libiris_ksirk.so.2:_ZNK12XDomNodeList7isEmptyEv
libiris_ksirk.so.2:_ZNK12XDomNodeListeqERKS_
libiris_ksirk.so.2:_ZNK4XMPP10JT_Gateway10metaObjectEv
libiris_ksirk.so.2:_ZNK4XMPP10JT_Gateway3jidEv
libiris_ksirk.so.2:_ZNK4XMPP10JT_Gateway4descEv
libiris_ksirk.so.2:_ZNK4XMPP10JT_Gateway6promptEv
libiris_ksirk.so.2:_ZNK4XMPP10JT_Message10metaObjectEv
libiris_ksirk.so.2:_ZNK4XMPP10JT_PushS5B10metaObjectEv
libiris_ksirk.so.2:_ZNK4XMPP10JT_PushS5B8priorityEv
libiris_ksirk.so.2:_ZNK4XMPP10S5BManager10metaObjectEv
libiris_ksirk.so.2:_ZNK4XMPP10S5BManager12findIncomingERKNS_3JidERK7QString
libiris_ksirk.so.2:_ZNK4XMPP10S5BManager12genUniqueSIDERKNS_3JidE
libiris_ksirk.so.2:_ZNK4XMPP10S5BManager12srv_ownsHashERK7QString
libiris_ksirk.so.2:_ZNK4XMPP10S5BManager14findEntryBySIDERKNS_3JidERK7QString
libiris_ksirk.so.2:_ZNK4XMPP10S5BManager15findEntryByHashERK7QString
libiris_ksirk.so.2:_ZNK4XMPP10S5BManager15isAcceptableSIDERKNS_3JidERK7QString
libiris_ksirk.so.2:_ZNK4XMPP10S5BManager21findServerEntryByHashERK7QString
libiris_ksirk.so.2:_ZNK4XMPP10S5BManager4Item10metaObjectEv
libiris_ksirk.so.2:_ZNK4XMPP10S5BManager6clientEv
libiris_ksirk.so.2:_ZNK4XMPP10S5BManager6serverEv
libiris_ksirk.so.2:_ZNK4XMPP10S5BManager9findEntryEPNS0_4ItemE
libiris_ksirk.so.2:_ZNK4XMPP10S5BManager9findEntryEPNS_13S5BConnectionE
libiris_ksirk.so.2:_ZNK4XMPP10StreamHost3jidEv
libiris_ksirk.so.2:_ZNK4XMPP10StreamHost4hostEv
libiris_ksirk.so.2:_ZNK4XMPP10StreamHost4portEv
libiris_ksirk.so.2:_ZNK4XMPP10StreamHost7isProxyEv
libiris_ksirk.so.2:_ZNK4XMPP10TLSHandler10metaObjectEv
libiris_ksirk.so.2:_ZNK4XMPP11JT_Presence10metaObjectEv
libiris_ksirk.so.2:_ZNK4XMPP11JT_Register10metaObjectEv
libiris_ksirk.so.2:_ZNK4XMPP11JT_Register4formEv
libiris_ksirk.so.2:_ZNK4XMPP11JT_Register5xdataEv
libiris_ksirk.so.2:_ZNK4XMPP11JT_Register8hasXDataEv
libiris_ksirk.so.2:_ZNK4XMPP11JT_ServInfo10metaObjectEv
libiris_ksirk.so.2:_ZNK4XMPP11S5BDatagram10sourcePortEv
libiris_ksirk.so.2:_ZNK4XMPP11S5BDatagram4dataEv
libiris_ksirk.so.2:_ZNK4XMPP11S5BDatagram8destPortEv
libiris_ksirk.so.2:_ZNK4XMPP12ClientStream10metaObjectEv
libiris_ksirk.so.2:_ZNK4XMPP12ClientStream12errorAppSpecEv
libiris_ksirk.so.2:_ZNK4XMPP12ClientStream13saslMechanismEv
libiris_ksirk.so.2:_ZNK4XMPP12ClientStream14errorConditionEv
libiris_ksirk.so.2:_ZNK4XMPP12ClientStream15isAuthenticatedEv
libiris_ksirk.so.2:_ZNK4XMPP12ClientStream15stanzaAvailableEv
libiris_ksirk.so.2:_ZNK4XMPP12ClientStream17convertedSASLCondEv
libiris_ksirk.so.2:_ZNK4XMPP12ClientStream3docEv
libiris_ksirk.so.2:_ZNK4XMPP12ClientStream3jidEv
libiris_ksirk.so.2:_ZNK4XMPP12ClientStream3oldEv
libiris_ksirk.so.2:_ZNK4XMPP12ClientStream5hostsEv
libiris_ksirk.so.2:_ZNK4XMPP12ClientStream6baseNSEv
libiris_ksirk.so.2:_ZNK4XMPP12ClientStream7saslSSFEv
libiris_ksirk.so.2:_ZNK4XMPP12ClientStream8isActiveEv
libiris_ksirk.so.2:_ZNK4XMPP12ClientStream9errorTextEv
libiris_ksirk.so.2:_ZNK4XMPP12S5BConnector10metaObjectEv
libiris_ksirk.so.2:_ZNK4XMPP12S5BConnector14streamHostUsedEv
libiris_ksirk.so.2:_ZNK4XMPP12S5BConnector4Item10metaObjectEv
libiris_ksirk.so.2:_ZNK4XMPP13JT_DiscoItems10metaObjectEv
libiris_ksirk.so.2:_ZNK4XMPP13JT_DiscoItems5itemsEv
libiris_ksirk.so.2:_ZNK4XMPP13JT_PushRoster10metaObjectEv
libiris_ksirk.so.2:_ZNK4XMPP13JT_UnRegister10metaObjectEv
libiris_ksirk.so.2:_ZNK4XMPP13QCATLSHandler10metaObjectEv
libiris_ksirk.so.2:_ZNK4XMPP13QCATLSHandler3tlsEv
libiris_ksirk.so.2:_ZNK4XMPP13QCATLSHandler8tlsErrorEv
libiris_ksirk.so.2:_ZNK4XMPP13S5BConnection10metaObjectEv
libiris_ksirk.so.2:_ZNK4XMPP13S5BConnection12bytesToWriteEv
libiris_ksirk.so.2:_ZNK4XMPP13S5BConnection14bytesAvailableEv
libiris_ksirk.so.2:_ZNK4XMPP13S5BConnection18datagramsAvailableEv
libiris_ksirk.so.2:_ZNK4XMPP13S5BConnection3sidEv
libiris_ksirk.so.2:_ZNK4XMPP13S5BConnection4modeEv
libiris_ksirk.so.2:_ZNK4XMPP13S5BConnection4peerEv
libiris_ksirk.so.2:_ZNK4XMPP13S5BConnection5proxyEv
libiris_ksirk.so.2:_ZNK4XMPP13S5BConnection5stateEv
libiris_ksirk.so.2:_ZNK4XMPP13S5BConnection6isOpenEv
libiris_ksirk.so.2:_ZNK4XMPP13S5BConnection8isRemoteEv
libiris_ksirk.so.2:_ZNK4XMPP14JT_GetServices10metaObjectEv
libiris_ksirk.so.2:_ZNK4XMPP14JT_GetServices6agentsEv
libiris_ksirk.so.2:_ZNK4XMPP14JT_PushMessage10metaObjectEv
libiris_ksirk.so.2:_ZNK4XMPP15JT_DiscoPublish10metaObjectEv
libiris_ksirk.so.2:_ZNK4XMPP15JT_PushPresence10metaObjectEv
libiris_ksirk.so.2:_ZNK4XMPP16JT_ClientVersion10metaObjectEv
libiris_ksirk.so.2:_ZNK4XMPP16JT_ClientVersion2osEv
libiris_ksirk.so.2:_ZNK4XMPP16JT_ClientVersion3jidEv
libiris_ksirk.so.2:_ZNK4XMPP16JT_ClientVersion4nameEv
libiris_ksirk.so.2:_ZNK4XMPP16JT_ClientVersion7versionEv
libiris_ksirk.so.2:_ZNK4XMPP17AdvancedConnector10metaObjectEv
libiris_ksirk.so.2:_ZNK4XMPP17AdvancedConnector4hostEv
libiris_ksirk.so.2:_ZNK4XMPP17AdvancedConnector5Proxy12pollIntervalEv
libiris_ksirk.so.2:_ZNK4XMPP17AdvancedConnector5Proxy3urlEv
libiris_ksirk.so.2:_ZNK4XMPP17AdvancedConnector5Proxy4hostEv
libiris_ksirk.so.2:_ZNK4XMPP17AdvancedConnector5Proxy4passEv
libiris_ksirk.so.2:_ZNK4XMPP17AdvancedConnector5Proxy4portEv
libiris_ksirk.so.2:_ZNK4XMPP17AdvancedConnector5Proxy4typeEv
libiris_ksirk.so.2:_ZNK4XMPP17AdvancedConnector5Proxy4userEv
libiris_ksirk.so.2:_ZNK4XMPP17AdvancedConnector6streamEv
libiris_ksirk.so.2:_ZNK4XMPP17AdvancedConnector9errorCodeEv
libiris_ksirk.so.2:_ZNK4XMPP3Jid12withResourceERK7QString
libiris_ksirk.so.2:_ZNK4XMPP3Jid7compareERKS0_b
libiris_ksirk.so.2:_ZNK4XMPP3Jid7isEmptyEv
libiris_ksirk.so.2:_ZNK4XMPP3Jid7isValidEv
libiris_ksirk.so.2:_ZNK4XMPP3Jid8withNodeERK7QString
libiris_ksirk.so.2:_ZNK4XMPP4Task10metaObjectEv
libiris_ksirk.so.2:_ZNK4XMPP4Task10statusCodeEv
libiris_ksirk.so.2:_ZNK4XMPP4Task12statusStringEv
libiris_ksirk.so.2:_ZNK4XMPP4Task2idEv
libiris_ksirk.so.2:_ZNK4XMPP4Task3docEv
libiris_ksirk.so.2:_ZNK4XMPP4Task6clientEv
libiris_ksirk.so.2:_ZNK4XMPP4Task6parentEv
libiris_ksirk.so.2:_ZNK4XMPP4Task7successEv
libiris_ksirk.so.2:_ZNK4XMPP6Client10clientNameEv
libiris_ksirk.so.2:_ZNK4XMPP6Client10extensionsEv
libiris_ksirk.so.2:_ZNK4XMPP6Client10ibbManagerEv
libiris_ksirk.so.2:_ZNK4XMPP6Client10metaObjectEv
libiris_ksirk.so.2:_ZNK4XMPP6Client10s5bManagerEv
libiris_ksirk.so.2:_ZNK4XMPP6Client11capsVersionEv
libiris_ksirk.so.2:_ZNK4XMPP6Client12resourceListEv
libiris_ksirk.so.2:_ZNK4XMPP6Client12streamBaseNSEv
libiris_ksirk.so.2:_ZNK4XMPP6Client13clientVersionEv
libiris_ksirk.so.2:_ZNK4XMPP6Client14timeZoneOffsetEv
libiris_ksirk.so.2:_ZNK4XMPP6Client17groupChatPasswordERK7QStringS3_
libiris_ksirk.so.2:_ZNK4XMPP6Client19fileTransferManagerEv
libiris_ksirk.so.2:_ZNK4XMPP6Client3docEv
libiris_ksirk.so.2:_ZNK4XMPP6Client3jidEv
libiris_ksirk.so.2:_ZNK4XMPP6Client4hostEv
libiris_ksirk.so.2:_ZNK4XMPP6Client4passEv
libiris_ksirk.so.2:_ZNK4XMPP6Client4userEv
libiris_ksirk.so.2:_ZNK4XMPP6Client6OSNameEv
libiris_ksirk.so.2:_ZNK4XMPP6Client6rosterEv
libiris_ksirk.so.2:_ZNK4XMPP6Client7capsExtEv
libiris_ksirk.so.2:_ZNK4XMPP6Client8capsNodeEv
libiris_ksirk.so.2:_ZNK4XMPP6Client8featuresEv
libiris_ksirk.so.2:_ZNK4XMPP6Client8isActiveEv
libiris_ksirk.so.2:_ZNK4XMPP6Client8resourceEv
libiris_ksirk.so.2:_ZNK4XMPP6Client8timeZoneEv
libiris_ksirk.so.2:_ZNK4XMPP6Client9extensionERK7QString
libiris_ksirk.so.2:_ZNK4XMPP6JT_S5B10metaObjectEv
libiris_ksirk.so.2:_ZNK4XMPP6JT_S5B14streamHostUsedEv
libiris_ksirk.so.2:_ZNK4XMPP6JT_S5B9proxyInfoEv
libiris_ksirk.so.2:_ZNK4XMPP6Stanza2idEv
libiris_ksirk.so.2:_ZNK4XMPP6Stanza2toEv
libiris_ksirk.so.2:_ZNK4XMPP6Stanza3docEv
libiris_ksirk.so.2:_ZNK4XMPP6Stanza4fromEv
libiris_ksirk.so.2:_ZNK4XMPP6Stanza4kindEv
libiris_ksirk.so.2:_ZNK4XMPP6Stanza4langEv
libiris_ksirk.so.2:_ZNK4XMPP6Stanza4typeEv
libiris_ksirk.so.2:_ZNK4XMPP6Stanza5Error11descriptionEv
libiris_ksirk.so.2:_ZNK4XMPP6Stanza5Error4codeEv
libiris_ksirk.so.2:_ZNK4XMPP6Stanza5Error5toXmlER12QDomDocumentRK7QString
libiris_ksirk.so.2:_ZNK4XMPP6Stanza5errorEv
libiris_ksirk.so.2:_ZNK4XMPP6Stanza6baseNSEv
libiris_ksirk.so.2:_ZNK4XMPP6Stanza6isNullEv
libiris_ksirk.so.2:_ZNK4XMPP6Stanza7elementEv
libiris_ksirk.so.2:_ZNK4XMPP6Stanza8toStringEv
libiris_ksirk.so.2:_ZNK4XMPP6Status10hasMUCItemEv
libiris_ksirk.so.2:_ZNK4XMPP6Status10mucDestroyEv
libiris_ksirk.so.2:_ZNK4XMPP6Status10typeStringEv
libiris_ksirk.so.2:_ZNK4XMPP6Status11capsVersionEv
libiris_ksirk.so.2:_ZNK4XMPP6Status11errorStringEv
libiris_ksirk.so.2:_ZNK4XMPP6Status11isAvailableEv
libiris_ksirk.so.2:_ZNK4XMPP6Status11isInvisibleEv
libiris_ksirk.so.2:_ZNK4XMPP6Status11mucPasswordEv
libiris_ksirk.so.2:_ZNK4XMPP6Status12hasPhotoHashEv
libiris_ksirk.so.2:_ZNK4XMPP6Status13hasMUCDestroyEv
libiris_ksirk.so.2:_ZNK4XMPP6Status13hasMUCHistoryEv
libiris_ksirk.so.2:_ZNK4XMPP6Status14getMUCStatusesEv
libiris_ksirk.so.2:_ZNK4XMPP6Status17mucHistorySecondsEv
libiris_ksirk.so.2:_ZNK4XMPP6Status18mucHistoryMaxCharsEv
libiris_ksirk.so.2:_ZNK4XMPP6Status20mucHistoryMaxStanzasEv
libiris_ksirk.so.2:_ZNK4XMPP6Status4showEv
libiris_ksirk.so.2:_ZNK4XMPP6Status4typeEv
libiris_ksirk.so.2:_ZNK4XMPP6Status5isMUCEv
libiris_ksirk.so.2:_ZNK4XMPP6Status5keyIDEv
libiris_ksirk.so.2:_ZNK4XMPP6Status6isAwayEv
libiris_ksirk.so.2:_ZNK4XMPP6Status6statusEv
libiris_ksirk.so.2:_ZNK4XMPP6Status7capsExtEv
libiris_ksirk.so.2:_ZNK4XMPP6Status7mucItemEv
libiris_ksirk.so.2:_ZNK4XMPP6Status7xsignedEv
libiris_ksirk.so.2:_ZNK4XMPP6Status8capsNodeEv
libiris_ksirk.so.2:_ZNK4XMPP6Status8hasErrorEv
libiris_ksirk.so.2:_ZNK4XMPP6Status8priorityEv
libiris_ksirk.so.2:_ZNK4XMPP6Status9errorCodeEv
libiris_ksirk.so.2:_ZNK4XMPP6Status9photoHashEv
libiris_ksirk.so.2:_ZNK4XMPP6Status9songTitleEv
libiris_ksirk.so.2:_ZNK4XMPP6Status9timeStampEv
libiris_ksirk.so.2:_ZNK4XMPP7Message10mucDeclineEv
libiris_ksirk.so.2:_ZNK4XMPP7Message10mucInvitesEv
libiris_ksirk.so.2:_ZNK4XMPP7Message10pubsubNodeEv
libiris_ksirk.so.2:_ZNK4XMPP7Message10xencryptedEv
libiris_ksirk.so.2:_ZNK4XMPP7Message11mucPasswordEv
libiris_ksirk.so.2:_ZNK4XMPP7Message11pubsubItemsEv
libiris_ksirk.so.2:_ZNK4XMPP7Message12wasEncryptedEv
libiris_ksirk.so.2:_ZNK4XMPP7Message13containsEventENS_8MsgEventE
libiris_ksirk.so.2:_ZNK4XMPP7Message13findAddressesENS_7Address4TypeE
libiris_ksirk.so.2:_ZNK4XMPP7Message14containsEventsEv
libiris_ksirk.so.2:_ZNK4XMPP7Message14getMUCStatusesEv
libiris_ksirk.so.2:_ZNK4XMPP7Message14messageReceiptEv
libiris_ksirk.so.2:_ZNK4XMPP7Message15httpAuthRequestEv
libiris_ksirk.so.2:_ZNK4XMPP7Message17pubsubRetractionsEv
libiris_ksirk.so.2:_ZNK4XMPP7Message19rosterExchangeItemsEv
libiris_ksirk.so.2:_ZNK4XMPP7Message2idEv
libiris_ksirk.so.2:_ZNK4XMPP7Message2toEv
libiris_ksirk.so.2:_ZNK4XMPP7Message3sxeEv
libiris_ksirk.so.2:_ZNK4XMPP7Message4bodyERK7QString
libiris_ksirk.so.2:_ZNK4XMPP7Message4fromEv
libiris_ksirk.so.2:_ZNK4XMPP7Message4htmlERK7QString
libiris_ksirk.so.2:_ZNK4XMPP7Message4langEv
libiris_ksirk.so.2:_ZNK4XMPP7Message4nickEv
libiris_ksirk.so.2:_ZNK4XMPP7Message4typeEv
libiris_ksirk.so.2:_ZNK4XMPP7Message5errorEv
libiris_ksirk.so.2:_ZNK4XMPP7Message6inviteEv
libiris_ksirk.so.2:_ZNK4XMPP7Message6threadEv
libiris_ksirk.so.2:_ZNK4XMPP7Message7eventIdEv
libiris_ksirk.so.2:_ZNK4XMPP7Message7getFormEv
libiris_ksirk.so.2:_ZNK4XMPP7Message7spooledEv
libiris_ksirk.so.2:_ZNK4XMPP7Message7subjectERK7QString
libiris_ksirk.so.2:_ZNK4XMPP7Message7urlListEv
libiris_ksirk.so.2:_ZNK4XMPP7Message8toStanzaEPNS_6StreamE
libiris_ksirk.so.2:_ZNK4XMPP7Message9addressesEv
libiris_ksirk.so.2:_ZNK4XMPP7Message9chatStateEv
libiris_ksirk.so.2:_ZNK4XMPP7Message9timeStampEv
libiris_ksirk.so.2:_ZNK4XMPP8JT_VCard10metaObjectEv
libiris_ksirk.so.2:_ZNK4XMPP8JT_VCard3jidEv
libiris_ksirk.so.2:_ZNK4XMPP8JT_VCard5vcardEv
libiris_ksirk.so.2:_ZNK4XMPP8Resource4nameEv
libiris_ksirk.so.2:_ZNK4XMPP8Resource6statusEv
libiris_ksirk.so.2:_ZNK4XMPP8Resource8priorityEv
libiris_ksirk.so.2:_ZNK4XMPP9Connector10metaObjectEv
libiris_ksirk.so.2:_ZNK4XMPP9Connector11peerAddressEv
libiris_ksirk.so.2:_ZNK4XMPP9Connector15havePeerAddressEv
libiris_ksirk.so.2:_ZNK4XMPP9Connector4hostEv
libiris_ksirk.so.2:_ZNK4XMPP9Connector6useSSLEv
libiris_ksirk.so.2:_ZNK4XMPP9Connector8peerPortEv
libiris_ksirk.so.2:_ZNK4XMPP9JT_Browse10metaObjectEv
libiris_ksirk.so.2:_ZNK4XMPP9JT_Browse4rootEv
libiris_ksirk.so.2:_ZNK4XMPP9JT_Browse6agentsEv
libiris_ksirk.so.2:_ZNK4XMPP9JT_Roster10metaObjectEv
libiris_ksirk.so.2:_ZNK4XMPP9JT_Roster6rosterEv
libiris_ksirk.so.2:_ZNK4XMPP9JT_Roster8toStringEv
libiris_ksirk.so.2:_ZNK4XMPP9JT_Search10metaObjectEv
libiris_ksirk.so.2:_ZNK4XMPP9JT_Search4formEv
libiris_ksirk.so.2:_ZNK4XMPP9JT_Search5xdataEv
libiris_ksirk.so.2:_ZNK4XMPP9JT_Search7resultsEv
libiris_ksirk.so.2:_ZNK4XMPP9JT_Search8hasXDataEv
libiris_ksirk.so.2:_ZNK4XMPP9S5BServer10metaObjectEv
libiris_ksirk.so.2:_ZNK4XMPP9S5BServer11managerListEv
libiris_ksirk.so.2:_ZNK4XMPP9S5BServer4Item10metaObjectEv
libiris_ksirk.so.2:_ZNK4XMPP9S5BServer4portEv
libiris_ksirk.so.2:_ZNK4XMPP9S5BServer8hostListEv
libiris_ksirk.so.2:_ZNK4XMPP9S5BServer8isActiveEv
libiris_ksirk.so.2:_ZNK7BSocket10metaObjectEv
libiris_ksirk.so.2:_ZNK7BSocket11peerAddressEv
libiris_ksirk.so.2:_ZNK7BSocket12bytesToWriteEv
libiris_ksirk.so.2:_ZNK7BSocket14bytesAvailableEv
libiris_ksirk.so.2:_ZNK7BSocket4portEv
libiris_ksirk.so.2:_ZNK7BSocket5stateEv
libiris_ksirk.so.2:_ZNK7BSocket6isOpenEv
libiris_ksirk.so.2:_ZNK7BSocket6socketEv
libiris_ksirk.so.2:_ZNK7BSocket7addressEv
libiris_ksirk.so.2:_ZNK7BSocket8peerPortEv
